GAS LISTING /tmp/ccl5IYHt.s 			page 1


   1              		.file	"errorHandler.c"
   2              		.option nopic
   3              		.option norelax
   4              		.text
   5              	.Ltext0:
   6              		.cfi_sections	.debug_frame
   7              		.section	.rodata.str1.8,"aMS",@progbits,1
   8              		.align	3
   9              	.LC0:
  10 0000 496C6567 		.string	"Ilegalna Instrukcija  scause = 0x02\n"
  10      616C6E61 
  10      20496E73 
  10      7472756B 
  10      63696A61 
  11 0025 000000   		.align	3
  12              	.LC1:
  13 0028 4E65646F 		.string	"Nedozvoljena adresa citanja  scause = 0x05\n"
  13      7A766F6C 
  13      6A656E61 
  13      20616472 
  13      65736120 
  14 0054 00000000 		.align	3
  15              	.LC2:
  16 0058 4E65646F 		.string	"Nedozvoljena adresa upisa  scause = 0x07\n"
  16      7A766F6C 
  16      6A656E61 
  16      20616472 
  16      65736120 
  17              		.text
  18              		.align	2
  19              		.globl	errorHandler
  21              	errorHandler:
  22              	.LFB0:
  23              		.file 1 "src/errorHandler.c"
   1:src/errorHandler.c **** #include "../lib/console.h"
   2:src/errorHandler.c **** #include "../h/errorHandler.h"
   3:src/errorHandler.c **** #include "../lib/hw.h"
   4:src/errorHandler.c **** 
   5:src/errorHandler.c **** void errorHandler(){
  24              		.loc 1 5 20
  25              		.cfi_startproc
  26 0000 130101FD 		addi	sp,sp,-48
  27              		.cfi_def_cfa_offset 48
  28 0004 23341102 		sd	ra,40(sp)
  29 0008 23308102 		sd	s0,32(sp)
  30 000c 233C9100 		sd	s1,24(sp)
  31              		.cfi_offset 1, -8
  32              		.cfi_offset 8, -16
  33              		.cfi_offset 9, -24
  34 0010 13040103 		addi	s0,sp,48
  35              		.cfi_def_cfa 8, 0
   6:src/errorHandler.c **** 
   7:src/errorHandler.c **** 
   8:src/errorHandler.c ****     uint64 volatile scause;
  36              		.loc 1 8 5
   9:src/errorHandler.c ****     __asm__ volatile ("csrr %[scause], scause" : [scause] "=r"(scause));
  37              		.loc 1 9 5
GAS LISTING /tmp/ccl5IYHt.s 			page 2


  38              	#APP
  39              	# 9 "src/errorHandler.c" 1
  10              	
  40              		csrr a5, scause
  41              	# 0 "" 2
  42              	#NO_APP
  43 0018 233CF4FC 		sd	a5,-40(s0)
  11:src/errorHandler.c ****     if(scause == 0x02) {            // ILEGALNA INSTRUKCIJA
  44              		.loc 1 11 5
  45              		.loc 1 11 15 is_stmt 0
  46 001c 033784FD 		ld	a4,-40(s0)
  47              		.loc 1 11 7
  48 0020 93072000 		li	a5,2
  49 0024 6300F702 		beq	a4,a5,.L12
  12:src/errorHandler.c **** 
  13:src/errorHandler.c ****         __putc('\n');
  14:src/errorHandler.c ****         char *string = "Ilegalna Instrukcija  scause = 0x02\n";
  15:src/errorHandler.c **** 
  16:src/errorHandler.c ****         while (*string != '\n')
  17:src/errorHandler.c ****         {
  18:src/errorHandler.c ****             __putc(*string);
  19:src/errorHandler.c ****             string++;
  20:src/errorHandler.c ****         }
  21:src/errorHandler.c ****         __putc('\n');
  22:src/errorHandler.c ****     }
  23:src/errorHandler.c **** 
  24:src/errorHandler.c ****     else if(scause == 0x05){        // NEDOZVOLJENA ADRESA CITANJA
  50              		.loc 1 24 10 is_stmt 1
  51              		.loc 1 24 20 is_stmt 0
  52 0028 033784FD 		ld	a4,-40(s0)
  53              		.loc 1 24 12
  54 002c 93075000 		li	a5,5
  55 0030 630AF704 		beq	a4,a5,.L13
  25:src/errorHandler.c **** 
  26:src/errorHandler.c ****         __putc('\n');
  27:src/errorHandler.c ****         char *string = "Nedozvoljena adresa citanja  scause = 0x05\n";
  28:src/errorHandler.c **** 
  29:src/errorHandler.c ****         while (*string != '\n')
  30:src/errorHandler.c ****         {
  31:src/errorHandler.c ****             __putc(*string);
  32:src/errorHandler.c ****             string++;
  33:src/errorHandler.c ****         }
  34:src/errorHandler.c ****         __putc('\n');
  35:src/errorHandler.c ****     }
  36:src/errorHandler.c **** 
  37:src/errorHandler.c ****     else if(scause == 0x07){        // NEDOZVOLJENA ADRESA UPISA
  56              		.loc 1 37 10 is_stmt 1
  57              		.loc 1 37 20 is_stmt 0
  58 0034 033784FD 		ld	a4,-40(s0)
  59              		.loc 1 37 12
  60 0038 93077000 		li	a5,7
  61 003c 6304F708 		beq	a4,a5,.L14
  62              	.L5:
  38:src/errorHandler.c **** 
  39:src/errorHandler.c ****         __putc('\n');
  40:src/errorHandler.c ****         char *string = "Nedozvoljena adresa upisa  scause = 0x07\n";
  41:src/errorHandler.c **** 
GAS LISTING /tmp/ccl5IYHt.s 			page 3


  42:src/errorHandler.c ****         while (*string != '\n')
  43:src/errorHandler.c ****         {
  44:src/errorHandler.c ****             __putc(*string);
  45:src/errorHandler.c ****             string++;
  46:src/errorHandler.c ****         }
  47:src/errorHandler.c ****         __putc('\n');
  48:src/errorHandler.c ****     }
  49:src/errorHandler.c **** 
  50:src/errorHandler.c **** //    else if(scause == 0x8000000000000009){      // SPOLJASNI HARDVERSKI PREKID
  51:src/errorHandler.c **** //        console_handler();
  52:src/errorHandler.c **** //        return;
  53:src/errorHandler.c **** //    }
  54:src/errorHandler.c **** //
  55:src/errorHandler.c **** //    else if(scause == 0x8000000000000001){      // SOFTVERSKI PREKID IZ TRECEG REZIMA
  56:src/errorHandler.c **** //
  57:src/errorHandler.c **** //    }
  58:src/errorHandler.c **** 
  59:src/errorHandler.c ****     while(1){
  63              		.loc 1 59 5 is_stmt 1 discriminator 1
  60:src/errorHandler.c **** 
  61:src/errorHandler.c ****     }
  64              		.loc 1 61 5 discriminator 1
  59:src/errorHandler.c **** 
  65              		.loc 1 59 10 discriminator 1
  66 0040 6F000000 		j	.L5
  67              	.L12:
  68              	.LBB2:
  13:src/errorHandler.c ****         char *string = "Ilegalna Instrukcija  scause = 0x02\n";
  69              		.loc 1 13 9
  70 0044 1305A000 		li	a0,10
  71 0048 97000000 		call	__putc
  71      E7800000 
  72              	.LVL0:
  14:src/errorHandler.c **** 
  73              		.loc 1 14 9
  16:src/errorHandler.c ****         {
  74              		.loc 1 16 9
  14:src/errorHandler.c **** 
  75              		.loc 1 14 15 is_stmt 0
  76 0050 97040000 		lla	s1,.LC0
  76      93840400 
  16:src/errorHandler.c ****         {
  77              		.loc 1 16 15
  78 0058 6F000001 		j	.L3
  79              	.LVL1:
  80              	.L4:
  18:src/errorHandler.c ****             string++;
  81              		.loc 1 18 13 is_stmt 1
  82 005c 97000000 		call	__putc
  82      E7800000 
  83              	.LVL2:
  19:src/errorHandler.c ****         }
  84              		.loc 1 19 13
  19:src/errorHandler.c ****         }
  85              		.loc 1 19 19 is_stmt 0
  86 0064 93841400 		addi	s1,s1,1
  87              	.LVL3:
GAS LISTING /tmp/ccl5IYHt.s 			page 4


  88              	.L3:
  16:src/errorHandler.c ****         {
  89              		.loc 1 16 15 is_stmt 1
  16:src/errorHandler.c ****         {
  90              		.loc 1 16 16 is_stmt 0
  91 0068 03C50400 		lbu	a0,0(s1)
  16:src/errorHandler.c ****         {
  92              		.loc 1 16 15
  93 006c 9307A000 		li	a5,10
  94 0070 E316F5FE 		bne	a0,a5,.L4
  21:src/errorHandler.c ****     }
  95              		.loc 1 21 9 is_stmt 1
  96 0074 1305A000 		li	a0,10
  97 0078 97000000 		call	__putc
  97      E7800000 
  98              	.LVL4:
  99              	.LBE2:
 100 0080 6FF01FFC 		j	.L5
 101              	.LVL5:
 102              	.L13:
 103              	.LBB3:
  26:src/errorHandler.c ****         char *string = "Nedozvoljena adresa citanja  scause = 0x05\n";
 104              		.loc 1 26 9
 105 0084 1305A000 		li	a0,10
 106 0088 97000000 		call	__putc
 106      E7800000 
 107              	.LVL6:
  27:src/errorHandler.c **** 
 108              		.loc 1 27 9
  29:src/errorHandler.c ****         {
 109              		.loc 1 29 9
  27:src/errorHandler.c **** 
 110              		.loc 1 27 15 is_stmt 0
 111 0090 97040000 		lla	s1,.LC1
 111      93840400 
  29:src/errorHandler.c ****         {
 112              		.loc 1 29 15
 113 0098 6F000001 		j	.L7
 114              	.LVL7:
 115              	.L8:
  31:src/errorHandler.c ****             string++;
 116              		.loc 1 31 13 is_stmt 1
 117 009c 97000000 		call	__putc
 117      E7800000 
 118              	.LVL8:
  32:src/errorHandler.c ****         }
 119              		.loc 1 32 13
  32:src/errorHandler.c ****         }
 120              		.loc 1 32 19 is_stmt 0
 121 00a4 93841400 		addi	s1,s1,1
 122              	.LVL9:
 123              	.L7:
  29:src/errorHandler.c ****         {
 124              		.loc 1 29 15 is_stmt 1
  29:src/errorHandler.c ****         {
 125              		.loc 1 29 16 is_stmt 0
 126 00a8 03C50400 		lbu	a0,0(s1)
GAS LISTING /tmp/ccl5IYHt.s 			page 5


  29:src/errorHandler.c ****         {
 127              		.loc 1 29 15
 128 00ac 9307A000 		li	a5,10
 129 00b0 E316F5FE 		bne	a0,a5,.L8
  34:src/errorHandler.c ****     }
 130              		.loc 1 34 9 is_stmt 1
 131 00b4 1305A000 		li	a0,10
 132 00b8 97000000 		call	__putc
 132      E7800000 
 133              	.LVL10:
 134              	.LBE3:
 135 00c0 6FF01FF8 		j	.L5
 136              	.LVL11:
 137              	.L14:
 138              	.LBB4:
  39:src/errorHandler.c ****         char *string = "Nedozvoljena adresa upisa  scause = 0x07\n";
 139              		.loc 1 39 9
 140 00c4 1305A000 		li	a0,10
 141 00c8 97000000 		call	__putc
 141      E7800000 
 142              	.LVL12:
  40:src/errorHandler.c **** 
 143              		.loc 1 40 9
  42:src/errorHandler.c ****         {
 144              		.loc 1 42 9
  40:src/errorHandler.c **** 
 145              		.loc 1 40 15 is_stmt 0
 146 00d0 97040000 		lla	s1,.LC2
 146      93840400 
  42:src/errorHandler.c ****         {
 147              		.loc 1 42 15
 148 00d8 6F000001 		j	.L9
 149              	.LVL13:
 150              	.L10:
  44:src/errorHandler.c ****             string++;
 151              		.loc 1 44 13 is_stmt 1
 152 00dc 97000000 		call	__putc
 152      E7800000 
 153              	.LVL14:
  45:src/errorHandler.c ****         }
 154              		.loc 1 45 13
  45:src/errorHandler.c ****         }
 155              		.loc 1 45 19 is_stmt 0
 156 00e4 93841400 		addi	s1,s1,1
 157              	.LVL15:
 158              	.L9:
  42:src/errorHandler.c ****         {
 159              		.loc 1 42 15 is_stmt 1
  42:src/errorHandler.c ****         {
 160              		.loc 1 42 16 is_stmt 0
 161 00e8 03C50400 		lbu	a0,0(s1)
  42:src/errorHandler.c ****         {
 162              		.loc 1 42 15
 163 00ec 9307A000 		li	a5,10
 164 00f0 E316F5FE 		bne	a0,a5,.L10
  47:src/errorHandler.c ****     }
 165              		.loc 1 47 9 is_stmt 1
GAS LISTING /tmp/ccl5IYHt.s 			page 6


 166 00f4 1305A000 		li	a0,10
 167 00f8 97000000 		call	__putc
 167      E7800000 
 168              	.LVL16:
 169 0100 6FF01FF4 		j	.L5
 170              	.LBE4:
 171              		.cfi_endproc
 172              	.LFE0:
 174              	.Letext0:
 175              		.file 2 "src/../lib/hw.h"
 176              		.file 3 "src/../lib/console.h"
GAS LISTING /tmp/ccl5IYHt.s 			page 7

