GAS LISTING /tmp/ccD8exx4.s 			page 1


   1              		.file	"init.c"
   2              		.option nopic
   3              		.option norelax
   4              		.text
   5              	.Ltext0:
   6              		.cfi_sections	.debug_frame
   7              		.align	2
   8              		.globl	initInterrupt
  10              	initInterrupt:
  11              	.LFB0:
  12              		.file 1 "src/init.c"
   1:src/init.c    **** //
   2:src/init.c    **** // Created by os on 1/19/24.
   3:src/init.c    **** //
   4:src/init.c    **** #include "../lib/hw.h"
   5:src/init.c    **** void vectorRoutine();
   6:src/init.c    **** void initInterrupt(){
  13              		.loc 1 6 21
  14              		.cfi_startproc
  15 0000 130101FF 		addi	sp,sp,-16
  16              		.cfi_def_cfa_offset 16
  17 0004 23348100 		sd	s0,8(sp)
  18              		.cfi_offset 8, -8
  19 0008 13040101 		addi	s0,sp,16
  20              		.cfi_def_cfa 8, 0
   7:src/init.c    ****     asm volatile("csrw stvec, %0" : : "r" ((uint64)vectorRoutine|1)); //0x820141284121
  21              		.loc 1 7 5
  22              		.loc 1 7 44 is_stmt 0
  23 000c 97070000 		lla	a5,vectorRoutine
  23      93870700 
  24              		.loc 1 7 65
  25 0014 93E71700 		ori	a5,a5,1
  26              		.loc 1 7 5
  27              	#APP
  28              	# 7 "src/init.c" 1
   8              	}
  29              		csrw stvec, a5
  30              	# 0 "" 2
  31              		.loc 1 8 1
  32              	#NO_APP
  33 001c 03348100 		ld	s0,8(sp)
  34              		.cfi_restore 8
  35              		.cfi_def_cfa 2, 16
  36 0020 13010101 		addi	sp,sp,16
  37              		.cfi_def_cfa_offset 0
  38 0024 67800000 		jr	ra
  39              		.cfi_endproc
  40              	.LFE0:
  42              		.align	2
  43              		.globl	initTimer
  45              	initTimer:
  46              	.LFB1:
   9:src/init.c    **** 
  10:src/init.c    **** void initTimer(){
  47              		.loc 1 10 17 is_stmt 1
  48              		.cfi_startproc
  49 0028 130101FF 		addi	sp,sp,-16
GAS LISTING /tmp/ccD8exx4.s 			page 2


  50              		.cfi_def_cfa_offset 16
  51 002c 23348100 		sd	s0,8(sp)
  52              		.cfi_offset 8, -8
  53 0030 13040101 		addi	s0,sp,16
  54              		.cfi_def_cfa 8, 0
  11:src/init.c    ****     uint64 sstatus;
  55              		.loc 1 11 5
  12:src/init.c    ****     asm volatile("csrr %0, sstatus" : "=r"(sstatus));
  56              		.loc 1 12 5
  57              	#APP
  58              	# 12 "src/init.c" 1
  13              	    sstatus |= 1<<1;
  59              		csrr a5, sstatus
  60              	# 0 "" 2
  61              	.LVL0:
  62              		.loc 1 13 5
  63              		.loc 1 13 13 is_stmt 0
  64              	#NO_APP
  65 0038 93E72700 		ori	a5,a5,2
  66              	.LVL1:
  14:src/init.c    ****     asm volatile("csrw sstatus, %0" : : "r"(sstatus));
  67              		.loc 1 14 5 is_stmt 1
  68              	#APP
  69              	# 14 "src/init.c" 1
  15              	}
  70              		csrw sstatus, a5
  71              	# 0 "" 2
  72              		.loc 1 15 1 is_stmt 0
  73              	#NO_APP
  74 0040 03348100 		ld	s0,8(sp)
  75              		.cfi_restore 8
  76              		.cfi_def_cfa 2, 16
  77 0044 13010101 		addi	sp,sp,16
  78              		.cfi_def_cfa_offset 0
  79 0048 67800000 		jr	ra
  80              		.cfi_endproc
  81              	.LFE1:
  83              	.Letext0:
  84              		.file 2 "src/../lib/hw.h"
GAS LISTING /tmp/ccD8exx4.s 			page 3

