GAS LISTING /tmp/cceAlX61.s 			page 1


   1              		.file	"k_FIFOList.cpp"
   2              		.option pic
   3              		.option norelax
   4              		.text
   5              	.Ltext0:
   6              		.align	2
   8              	_Z41__static_initialization_and_destruction_0ii:
   9              	.LFB15:
  10              		.file 1 "src/k_FIFOList.cpp"
   1:src/k_FIFOList.cpp **** 
   2:src/k_FIFOList.cpp **** #include "../h/k_FIFOList.hpp"
   3:src/k_FIFOList.cpp **** #include "../h/k_thread.hpp"
   4:src/k_FIFOList.cpp **** 
   5:src/k_FIFOList.cpp **** static node allNodes[MAX_NUM_OF_THREADS];
   6:src/k_FIFOList.cpp **** static bool isOcc[MAX_NUM_OF_THREADS] = {false};
   7:src/k_FIFOList.cpp **** 
   8:src/k_FIFOList.cpp **** 
   9:src/k_FIFOList.cpp **** static _fifoList allLists[MAX_NUM_OF_LISTS];
  10:src/k_FIFOList.cpp **** static bool isOccList[MAX_NUM_OF_LISTS] = {false};
  11:src/k_FIFOList.cpp **** 
  12:src/k_FIFOList.cpp **** 
  13:src/k_FIFOList.cpp **** void _fifoList::insertAtEnd(thread_t t) {
  14:src/k_FIFOList.cpp **** 
  15:src/k_FIFOList.cpp ****     node* n = new node(t);
  16:src/k_FIFOList.cpp **** 
  17:src/k_FIFOList.cpp **** 
  18:src/k_FIFOList.cpp ****     if(first != nullptr){
  19:src/k_FIFOList.cpp **** 
  20:src/k_FIFOList.cpp ****         last->next = n;
  21:src/k_FIFOList.cpp ****         last = n;
  22:src/k_FIFOList.cpp ****     }
  23:src/k_FIFOList.cpp **** 
  24:src/k_FIFOList.cpp ****     else{
  25:src/k_FIFOList.cpp **** 
  26:src/k_FIFOList.cpp ****         first = last = n;
  27:src/k_FIFOList.cpp ****     }
  28:src/k_FIFOList.cpp **** 
  29:src/k_FIFOList.cpp **** }
  30:src/k_FIFOList.cpp **** 
  31:src/k_FIFOList.cpp **** thread_t _fifoList::removeFromStart() {
  32:src/k_FIFOList.cpp **** 
  33:src/k_FIFOList.cpp ****     if(first != nullptr) {
  34:src/k_FIFOList.cpp **** 
  35:src/k_FIFOList.cpp ****         node *n = first;
  36:src/k_FIFOList.cpp ****         delete(first);
  37:src/k_FIFOList.cpp **** 
  38:src/k_FIFOList.cpp ****         if (first == last) {
  39:src/k_FIFOList.cpp ****             first = last = nullptr;
  40:src/k_FIFOList.cpp ****         }
  41:src/k_FIFOList.cpp **** 
  42:src/k_FIFOList.cpp ****         else{
  43:src/k_FIFOList.cpp ****             first = first->next;
  44:src/k_FIFOList.cpp ****         }
  45:src/k_FIFOList.cpp **** 
  46:src/k_FIFOList.cpp ****         n->next = nullptr;
  47:src/k_FIFOList.cpp **** 
  48:src/k_FIFOList.cpp ****         return n->data;
GAS LISTING /tmp/cceAlX61.s 			page 2


  49:src/k_FIFOList.cpp ****     }
  50:src/k_FIFOList.cpp **** 
  51:src/k_FIFOList.cpp ****     return nullptr;
  52:src/k_FIFOList.cpp **** }
  53:src/k_FIFOList.cpp **** 
  54:src/k_FIFOList.cpp **** void *node::operator new(size_t size) {
  55:src/k_FIFOList.cpp **** 
  56:src/k_FIFOList.cpp **** //    __putc('N');__putc('O');
  57:src/k_FIFOList.cpp **** 
  58:src/k_FIFOList.cpp ****     for (int i = 0; i < MAX_NUM_OF_THREADS; i++) {
  59:src/k_FIFOList.cpp **** 
  60:src/k_FIFOList.cpp ****         if (!isOcc[i]) {
  61:src/k_FIFOList.cpp ****             isOcc[i] = true;
  62:src/k_FIFOList.cpp ****             return (void *) (allNodes + i);
  63:src/k_FIFOList.cpp ****         }
  64:src/k_FIFOList.cpp ****     }
  65:src/k_FIFOList.cpp ****     //__mem_alloc
  66:src/k_FIFOList.cpp ****     return allNodes;
  67:src/k_FIFOList.cpp **** 
  68:src/k_FIFOList.cpp ****     // return __mem_alloc((size+MEM_BLOCK_SIZE-1)/MEM_BLOCK_SIZE);
  69:src/k_FIFOList.cpp **** 
  70:src/k_FIFOList.cpp **** }
  71:src/k_FIFOList.cpp **** 
  72:src/k_FIFOList.cpp **** void node::operator delete(void *ptr) noexcept {
  73:src/k_FIFOList.cpp **** 
  74:src/k_FIFOList.cpp ****  //   __putc('D');__putc('O');
  75:src/k_FIFOList.cpp ****     int index = (node *)ptr - allNodes;
  76:src/k_FIFOList.cpp ****     isOcc[index] = false;
  77:src/k_FIFOList.cpp **** 
  78:src/k_FIFOList.cpp **** }
  79:src/k_FIFOList.cpp **** 
  80:src/k_FIFOList.cpp **** void *_fifoList::operator new(size_t size) {
  81:src/k_FIFOList.cpp **** 
  82:src/k_FIFOList.cpp ****     for (int i = 0; i < MAX_NUM_OF_LISTS; i++) {
  83:src/k_FIFOList.cpp **** 
  84:src/k_FIFOList.cpp ****         if (!isOccList[i]) {
  85:src/k_FIFOList.cpp ****             isOccList[i] = true;
  86:src/k_FIFOList.cpp ****             return (void *) (allLists + i);
  87:src/k_FIFOList.cpp ****         }
  88:src/k_FIFOList.cpp ****     }
  89:src/k_FIFOList.cpp **** 
  90:src/k_FIFOList.cpp ****     return allLists;
  91:src/k_FIFOList.cpp **** 
  92:src/k_FIFOList.cpp ****     // return __mem_alloc((size+MEM_BLOCK_SIZE-1)/MEM_BLOCK_SIZE);
  93:src/k_FIFOList.cpp ****     //  __mem_alloc()
  94:src/k_FIFOList.cpp **** }
  95:src/k_FIFOList.cpp **** 
  96:src/k_FIFOList.cpp **** void _fifoList::operator delete(void *ptr) noexcept {
  97:src/k_FIFOList.cpp **** 
  98:src/k_FIFOList.cpp ****     int index = (_fifoList *)ptr - allLists;
  99:src/k_FIFOList.cpp ****     isOccList[index] = false;
 100:src/k_FIFOList.cpp **** 
 101:src/k_FIFOList.cpp **** }
  11              		.loc 1 101 1
  12              		.cfi_startproc
  13              	.LVL0:
  14 0000 130101FF 		addi	sp,sp,-16
GAS LISTING /tmp/cceAlX61.s 			page 3


  15              		.cfi_def_cfa_offset 16
  16 0004 23348100 		sd	s0,8(sp)
  17              		.cfi_offset 8, -8
  18 0008 13040101 		addi	s0,sp,16
  19              		.cfi_def_cfa 8, 0
  20              		.loc 1 101 1 is_stmt 0
  21 000c 93071000 		li	a5,1
  22 0010 6308F500 		beq	a0,a5,.L7
  23              	.L1:
  24 0014 03348100 		ld	s0,8(sp)
  25              		.cfi_remember_state
  26              		.cfi_restore 8
  27              		.cfi_def_cfa 2, 16
  28 0018 13010101 		addi	sp,sp,16
  29              		.cfi_def_cfa_offset 0
  30 001c 67800000 		jr	ra
  31              	.L7:
  32              		.cfi_restore_state
  33              		.loc 1 101 1 discriminator 1
  34 0020 B7070100 		li	a5,65536
  35 0024 9387F7FF 		addi	a5,a5,-1
  36 0028 E396F5FE 		bne	a1,a5,.L1
   5:src/k_FIFOList.cpp **** static bool isOcc[MAX_NUM_OF_THREADS] = {false};
  37              		.loc 1 5 40
  38 002c 9307F007 		li	a5,127
  39              	.L4:
   5:src/k_FIFOList.cpp **** static bool isOcc[MAX_NUM_OF_THREADS] = {false};
  40              		.loc 1 5 40 is_stmt 1 discriminator 4
  41 0030 63C60700 		bltz	a5,.L5
   5:src/k_FIFOList.cpp **** static bool isOcc[MAX_NUM_OF_THREADS] = {false};
  42              		.loc 1 5 40
  43 0034 9387F7FF 		addi	a5,a5,-1
  44 0038 6FF09FFF 		j	.L4
  45              	.L5:
   9:src/k_FIFOList.cpp **** static bool isOccList[MAX_NUM_OF_LISTS] = {false};
  46              		.loc 1 9 43 is_stmt 0
  47 003c 13073006 		li	a4,99
  48 0040 97070000 		lla	a5,.LANCHOR0
  48      93870700 
  49              	.L3:
   9:src/k_FIFOList.cpp **** static bool isOccList[MAX_NUM_OF_LISTS] = {false};
  50              		.loc 1 9 43 is_stmt 1 discriminator 4
  51 0048 E34607FC 		bltz	a4,.L1
  52              	.LVL1:
  53              	.LBB10:
  54              	.LBB11:
  55              		.file 2 "src/../h/k_FIFOList.hpp"
   1:src/../h/k_FIFOList.hpp **** 
   2:src/../h/k_FIFOList.hpp **** #ifndef OSALEKSA_K_FIFOLIST_H
   3:src/../h/k_FIFOList.hpp **** #define OSALEKSA_K_FIFOLIST_H
   4:src/../h/k_FIFOList.hpp **** 
   5:src/../h/k_FIFOList.hpp **** #include "../lib/console.h"
   6:src/../h/k_FIFOList.hpp **** #include "../lib/hw.h"
   7:src/../h/k_FIFOList.hpp **** #define MAX_NUM_OF_LISTS 100
   8:src/../h/k_FIFOList.hpp **** 
   9:src/../h/k_FIFOList.hpp **** class _thread;
  10:src/../h/k_FIFOList.hpp **** typedef _thread * thread_t;
GAS LISTING /tmp/cceAlX61.s 			page 4


  11:src/../h/k_FIFOList.hpp **** 
  12:src/../h/k_FIFOList.hpp **** class node{
  13:src/../h/k_FIFOList.hpp **** 
  14:src/../h/k_FIFOList.hpp **** public:
  15:src/../h/k_FIFOList.hpp **** 
  16:src/../h/k_FIFOList.hpp ****     thread_t data;
  17:src/../h/k_FIFOList.hpp ****     node* next;
  18:src/../h/k_FIFOList.hpp **** 
  19:src/../h/k_FIFOList.hpp ****     node(){
  20:src/../h/k_FIFOList.hpp ****       //  __putc('N');
  21:src/../h/k_FIFOList.hpp ****       //  __putc('C');
  22:src/../h/k_FIFOList.hpp ****     }
  23:src/../h/k_FIFOList.hpp **** 
  24:src/../h/k_FIFOList.hpp ****     node(thread_t _data){
  25:src/../h/k_FIFOList.hpp ****         data = _data;
  26:src/../h/k_FIFOList.hpp ****         next = nullptr;
  27:src/../h/k_FIFOList.hpp ****     }
  28:src/../h/k_FIFOList.hpp **** 
  29:src/../h/k_FIFOList.hpp ****     void *operator new(size_t size);
  30:src/../h/k_FIFOList.hpp **** 
  31:src/../h/k_FIFOList.hpp ****     void operator delete(void *ptr) noexcept;
  32:src/../h/k_FIFOList.hpp **** 
  33:src/../h/k_FIFOList.hpp **** };
  34:src/../h/k_FIFOList.hpp **** 
  35:src/../h/k_FIFOList.hpp **** class _fifoList{
  36:src/../h/k_FIFOList.hpp **** 
  37:src/../h/k_FIFOList.hpp ****     node* first;
  38:src/../h/k_FIFOList.hpp ****     node* last;
  39:src/../h/k_FIFOList.hpp **** public:
  40:src/../h/k_FIFOList.hpp **** 
  41:src/../h/k_FIFOList.hpp ****     _fifoList(){
  42:src/../h/k_FIFOList.hpp ****         first = last = nullptr;
  56              		.loc 2 42 9
  57              		.loc 2 42 22 is_stmt 0
  58 004c 23B40700 		sd	zero,8(a5)
  59              		.loc 2 42 15
  60 0050 23B00700 		sd	zero,0(a5)
  61              	.LVL2:
  62              	.LBE11:
  63              	.LBE10:
   9:src/k_FIFOList.cpp **** static bool isOccList[MAX_NUM_OF_LISTS] = {false};
  64              		.loc 1 9 43
  65 0054 93870701 		addi	a5,a5,16
   9:src/k_FIFOList.cpp **** static bool isOccList[MAX_NUM_OF_LISTS] = {false};
  66              		.loc 1 9 43 is_stmt 1
  67 0058 1307F7FF 		addi	a4,a4,-1
  68 005c 6FF0DFFE 		j	.L3
  69              		.cfi_endproc
  70              	.LFE15:
  72              		.align	2
  73              		.globl	_ZN4nodenwEm
  75              	_ZN4nodenwEm:
  76              	.LFB11:
  54:src/k_FIFOList.cpp **** 
  77              		.loc 1 54 39
  78              		.cfi_startproc
  79              	.LVL3:
GAS LISTING /tmp/cceAlX61.s 			page 5


  80 0060 130101FF 		addi	sp,sp,-16
  81              		.cfi_def_cfa_offset 16
  82 0064 23348100 		sd	s0,8(sp)
  83              		.cfi_offset 8, -8
  84 0068 13040101 		addi	s0,sp,16
  85              		.cfi_def_cfa 8, 0
  58:src/k_FIFOList.cpp **** 
  86              		.loc 1 58 5
  87              	.LVL4:
  88              	.LBB12:
  58:src/k_FIFOList.cpp **** 
  89              		.loc 1 58 14 is_stmt 0
  90 006c 93070000 		li	a5,0
  91 0070 6F008000 		j	.L11
  92              	.LVL5:
  93              	.L10:
  58:src/k_FIFOList.cpp **** 
  94              		.loc 1 58 5 is_stmt 1 discriminator 2
  95 0074 9B871700 		addiw	a5,a5,1
  96              	.LVL6:
  97              	.L11:
  58:src/k_FIFOList.cpp **** 
  98              		.loc 1 58 23 discriminator 1
  99 0078 1307F007 		li	a4,127
 100 007c 6344F704 		bgt	a5,a4,.L12
  60:src/k_FIFOList.cpp ****             isOcc[i] = true;
 101              		.loc 1 60 9
  60:src/k_FIFOList.cpp ****             isOcc[i] = true;
 102              		.loc 1 60 21 is_stmt 0
 103 0080 17070000 		lla	a4,.LANCHOR0
 103      13070700 
 104 0088 3307F700 		add	a4,a4,a5
 105 008c 03470764 		lbu	a4,1600(a4)
  60:src/k_FIFOList.cpp ****             isOcc[i] = true;
 106              		.loc 1 60 9
 107 0090 E31207FE 		bnez	a4,.L10
  61:src/k_FIFOList.cpp ****             return (void *) (allNodes + i);
 108              		.loc 1 61 13 is_stmt 1
  61:src/k_FIFOList.cpp ****             return (void *) (allNodes + i);
 109              		.loc 1 61 22 is_stmt 0
 110 0094 17070000 		lla	a4,.LANCHOR0
 110      13070700 
 111 009c 3307F700 		add	a4,a4,a5
 112 00a0 93061000 		li	a3,1
 113 00a4 2300D764 		sb	a3,1600(a4)
  62:src/k_FIFOList.cpp ****         }
 114              		.loc 1 62 13 is_stmt 1
  62:src/k_FIFOList.cpp ****         }
 115              		.loc 1 62 39 is_stmt 0
 116 00a8 93974700 		slli	a5,a5,4
 117              	.LVL7:
  62:src/k_FIFOList.cpp ****         }
 118              		.loc 1 62 42
 119 00ac 17050000 		lla	a0,_ZL8allNodes
 119      13050500 
 120              	.LVL8:
 121 00b4 3385A700 		add	a0,a5,a0
GAS LISTING /tmp/cceAlX61.s 			page 6


 122              	.L8:
 123              	.LBE12:
  70:src/k_FIFOList.cpp **** 
 124              		.loc 1 70 1
 125 00b8 03348100 		ld	s0,8(sp)
 126              		.cfi_remember_state
 127              		.cfi_restore 8
 128              		.cfi_def_cfa 2, 16
 129 00bc 13010101 		addi	sp,sp,16
 130              		.cfi_def_cfa_offset 0
 131 00c0 67800000 		jr	ra
 132              	.LVL9:
 133              	.L12:
 134              		.cfi_restore_state
  66:src/k_FIFOList.cpp **** 
 135              		.loc 1 66 12
 136 00c4 17050000 		lla	a0,_ZL8allNodes
 136      13050500 
 137              	.LVL10:
 138 00cc 6FF0DFFE 		j	.L8
 139              		.cfi_endproc
 140              	.LFE11:
 142              		.align	2
 143              		.globl	_ZN9_fifoList11insertAtEndEP7_thread
 145              	_ZN9_fifoList11insertAtEndEP7_thread:
 146              	.LFB9:
  13:src/k_FIFOList.cpp **** 
 147              		.loc 1 13 41 is_stmt 1
 148              		.cfi_startproc
 149              	.LVL11:
 150 00d0 130101FE 		addi	sp,sp,-32
 151              		.cfi_def_cfa_offset 32
 152 00d4 233C1100 		sd	ra,24(sp)
 153 00d8 23388100 		sd	s0,16(sp)
 154 00dc 23349100 		sd	s1,8(sp)
 155 00e0 23302101 		sd	s2,0(sp)
 156              		.cfi_offset 1, -8
 157              		.cfi_offset 8, -16
 158              		.cfi_offset 9, -24
 159              		.cfi_offset 18, -32
 160 00e4 13040102 		addi	s0,sp,32
 161              		.cfi_def_cfa 8, 0
 162 00e8 93040500 		mv	s1,a0
 163 00ec 13890500 		mv	s2,a1
  15:src/k_FIFOList.cpp **** 
 164              		.loc 1 15 5
  15:src/k_FIFOList.cpp **** 
 165              		.loc 1 15 25 is_stmt 0
 166 00f0 13050001 		li	a0,16
 167              	.LVL12:
 168 00f4 97000000 		call	_ZN4nodenwEm
 168      E7800000 
 169              	.LVL13:
 170              	.LBB13:
 171              	.LBB14:
  25:src/../h/k_FIFOList.hpp ****         next = nullptr;
 172              		.loc 2 25 9 is_stmt 1
GAS LISTING /tmp/cceAlX61.s 			page 7


  25:src/../h/k_FIFOList.hpp ****         next = nullptr;
 173              		.loc 2 25 14 is_stmt 0
 174 00fc 23302501 		sd	s2,0(a0)
  26:src/../h/k_FIFOList.hpp ****     }
 175              		.loc 2 26 9 is_stmt 1
  26:src/../h/k_FIFOList.hpp ****     }
 176              		.loc 2 26 14 is_stmt 0
 177 0100 23340500 		sd	zero,8(a0)
 178              	.LVL14:
 179              	.LBE14:
 180              	.LBE13:
  18:src/k_FIFOList.cpp **** 
 181              		.loc 1 18 5 is_stmt 1
  18:src/k_FIFOList.cpp **** 
 182              		.loc 1 18 8 is_stmt 0
 183 0104 83B70400 		ld	a5,0(s1)
  18:src/k_FIFOList.cpp **** 
 184              		.loc 1 18 5
 185 0108 63840702 		beqz	a5,.L15
  20:src/k_FIFOList.cpp ****         last = n;
 186              		.loc 1 20 9 is_stmt 1
 187 010c 83B78400 		ld	a5,8(s1)
  20:src/k_FIFOList.cpp ****         last = n;
 188              		.loc 1 20 20 is_stmt 0
 189 0110 23B4A700 		sd	a0,8(a5)
  21:src/k_FIFOList.cpp ****     }
 190              		.loc 1 21 9 is_stmt 1
  21:src/k_FIFOList.cpp ****     }
 191              		.loc 1 21 14 is_stmt 0
 192 0114 23B4A400 		sd	a0,8(s1)
 193              	.L14:
  29:src/k_FIFOList.cpp **** 
 194              		.loc 1 29 1
 195 0118 83308101 		ld	ra,24(sp)
 196              		.cfi_remember_state
 197              		.cfi_restore 1
 198 011c 03340101 		ld	s0,16(sp)
 199              		.cfi_restore 8
 200              		.cfi_def_cfa 2, 32
 201 0120 83348100 		ld	s1,8(sp)
 202              		.cfi_restore 9
 203              	.LVL15:
 204 0124 03390100 		ld	s2,0(sp)
 205              		.cfi_restore 18
 206              	.LVL16:
 207 0128 13010102 		addi	sp,sp,32
 208              		.cfi_def_cfa_offset 0
 209 012c 67800000 		jr	ra
 210              	.LVL17:
 211              	.L15:
 212              		.cfi_restore_state
  26:src/k_FIFOList.cpp ****     }
 213              		.loc 1 26 9 is_stmt 1
  26:src/k_FIFOList.cpp ****     }
 214              		.loc 1 26 22 is_stmt 0
 215 0130 23B4A400 		sd	a0,8(s1)
  26:src/k_FIFOList.cpp ****     }
GAS LISTING /tmp/cceAlX61.s 			page 8


 216              		.loc 1 26 15
 217 0134 23B0A400 		sd	a0,0(s1)
  29:src/k_FIFOList.cpp **** 
 218              		.loc 1 29 1
 219 0138 6FF01FFE 		j	.L14
 220              		.cfi_endproc
 221              	.LFE9:
 223              		.align	2
 224              		.globl	_ZN4nodedlEPv
 226              	_ZN4nodedlEPv:
 227              	.LFB12:
  72:src/k_FIFOList.cpp **** 
 228              		.loc 1 72 48 is_stmt 1
 229              		.cfi_startproc
 230              	.LVL18:
 231 013c 130101FF 		addi	sp,sp,-16
 232              		.cfi_def_cfa_offset 16
 233 0140 23348100 		sd	s0,8(sp)
 234              		.cfi_offset 8, -8
 235 0144 13040101 		addi	s0,sp,16
 236              		.cfi_def_cfa 8, 0
  75:src/k_FIFOList.cpp ****     isOcc[index] = false;
 237              		.loc 1 75 5
  75:src/k_FIFOList.cpp ****     isOcc[index] = false;
 238              		.loc 1 75 29 is_stmt 0
 239 0148 97070000 		lla	a5,_ZL8allNodes
 239      93870700 
 240 0150 3305F540 		sub	a0,a0,a5
 241              	.LVL19:
 242 0154 13554540 		srai	a0,a0,4
 243              	.LVL20:
  75:src/k_FIFOList.cpp ****     isOcc[index] = false;
 244              		.loc 1 75 9
 245 0158 1B050500 		sext.w	a0,a0
 246              	.LVL21:
  76:src/k_FIFOList.cpp **** 
 247              		.loc 1 76 5 is_stmt 1
  76:src/k_FIFOList.cpp **** 
 248              		.loc 1 76 18 is_stmt 0
 249 015c 97070000 		lla	a5,.LANCHOR0
 249      93870700 
 250 0164 3385A700 		add	a0,a5,a0
 251              	.LVL22:
 252 0168 23000564 		sb	zero,1600(a0)
  78:src/k_FIFOList.cpp **** 
 253              		.loc 1 78 1
 254 016c 03348100 		ld	s0,8(sp)
 255              		.cfi_restore 8
 256              		.cfi_def_cfa 2, 16
 257 0170 13010101 		addi	sp,sp,16
 258              		.cfi_def_cfa_offset 0
 259 0174 67800000 		jr	ra
 260              		.cfi_endproc
 261              	.LFE12:
 263              		.align	2
 264              		.globl	_ZN9_fifoList15removeFromStartEv
 266              	_ZN9_fifoList15removeFromStartEv:
GAS LISTING /tmp/cceAlX61.s 			page 9


 267              	.LFB10:
  31:src/k_FIFOList.cpp **** 
 268              		.loc 1 31 39 is_stmt 1
 269              		.cfi_startproc
 270              	.LVL23:
 271 0178 130101FE 		addi	sp,sp,-32
 272              		.cfi_def_cfa_offset 32
 273 017c 233C1100 		sd	ra,24(sp)
 274 0180 23388100 		sd	s0,16(sp)
 275 0184 23349100 		sd	s1,8(sp)
 276 0188 23302101 		sd	s2,0(sp)
 277              		.cfi_offset 1, -8
 278              		.cfi_offset 8, -16
 279              		.cfi_offset 9, -24
 280              		.cfi_offset 18, -32
 281 018c 13040102 		addi	s0,sp,32
 282              		.cfi_def_cfa 8, 0
  33:src/k_FIFOList.cpp **** 
 283              		.loc 1 33 5
 284              	.LBB15:
  33:src/k_FIFOList.cpp **** 
 285              		.loc 1 33 8 is_stmt 0
 286 0190 03390500 		ld	s2,0(a0)
  33:src/k_FIFOList.cpp **** 
 287              		.loc 1 33 5
 288 0194 63080902 		beqz	s2,.L20
 289 0198 93040500 		mv	s1,a0
 290              	.LBB16:
  35:src/k_FIFOList.cpp ****         delete(first);
 291              		.loc 1 35 9 is_stmt 1 discriminator 1
 292              	.LVL24:
  36:src/k_FIFOList.cpp **** 
 293              		.loc 1 36 9 discriminator 1
  36:src/k_FIFOList.cpp **** 
 294              		.loc 1 36 21 is_stmt 0 discriminator 1
 295 019c 13050900 		mv	a0,s2
 296              	.LVL25:
 297 01a0 97000000 		call	_ZN4nodedlEPv
 297      E7800000 
 298              	.LVL26:
  38:src/k_FIFOList.cpp ****             first = last = nullptr;
 299              		.loc 1 38 9 is_stmt 1 discriminator 1
  38:src/k_FIFOList.cpp ****             first = last = nullptr;
 300              		.loc 1 38 13 is_stmt 0 discriminator 1
 301 01a8 83B70400 		ld	a5,0(s1)
  38:src/k_FIFOList.cpp ****             first = last = nullptr;
 302              		.loc 1 38 22 discriminator 1
 303 01ac 03B78400 		ld	a4,8(s1)
  38:src/k_FIFOList.cpp ****             first = last = nullptr;
 304              		.loc 1 38 9 discriminator 1
 305 01b0 6388E702 		beq	a5,a4,.L25
  43:src/k_FIFOList.cpp ****         }
 306              		.loc 1 43 13 is_stmt 1
  43:src/k_FIFOList.cpp ****         }
 307              		.loc 1 43 28 is_stmt 0
 308 01b4 83B78700 		ld	a5,8(a5)
  43:src/k_FIFOList.cpp ****         }
GAS LISTING /tmp/cceAlX61.s 			page 10


 309              		.loc 1 43 19
 310 01b8 23B0F400 		sd	a5,0(s1)
 311              	.L23:
  46:src/k_FIFOList.cpp **** 
 312              		.loc 1 46 9 is_stmt 1
  46:src/k_FIFOList.cpp **** 
 313              		.loc 1 46 17 is_stmt 0
 314 01bc 23340900 		sd	zero,8(s2)
  48:src/k_FIFOList.cpp ****     }
 315              		.loc 1 48 9 is_stmt 1
  48:src/k_FIFOList.cpp ****     }
 316              		.loc 1 48 19 is_stmt 0
 317 01c0 03390900 		ld	s2,0(s2)
 318              	.LVL27:
 319              	.L20:
 320              	.LBE16:
 321              	.LBE15:
  52:src/k_FIFOList.cpp **** 
 322              		.loc 1 52 1
 323 01c4 13050900 		mv	a0,s2
 324 01c8 83308101 		ld	ra,24(sp)
 325              		.cfi_remember_state
 326              		.cfi_restore 1
 327 01cc 03340101 		ld	s0,16(sp)
 328              		.cfi_restore 8
 329              		.cfi_def_cfa 2, 32
 330 01d0 83348100 		ld	s1,8(sp)
 331              		.cfi_restore 9
 332 01d4 03390100 		ld	s2,0(sp)
 333              		.cfi_restore 18
 334 01d8 13010102 		addi	sp,sp,32
 335              		.cfi_def_cfa_offset 0
 336 01dc 67800000 		jr	ra
 337              	.LVL28:
 338              	.L25:
 339              		.cfi_restore_state
 340              	.LBB18:
 341              	.LBB17:
  39:src/k_FIFOList.cpp ****         }
 342              		.loc 1 39 13 is_stmt 1
  39:src/k_FIFOList.cpp ****         }
 343              		.loc 1 39 26 is_stmt 0
 344 01e0 23B40400 		sd	zero,8(s1)
  39:src/k_FIFOList.cpp ****         }
 345              		.loc 1 39 19
 346 01e4 23B00400 		sd	zero,0(s1)
 347 01e8 6FF05FFD 		j	.L23
 348              	.LBE17:
 349              	.LBE18:
 350              		.cfi_endproc
 351              	.LFE10:
 353              		.align	2
 354              		.globl	_ZN9_fifoListnwEm
 356              	_ZN9_fifoListnwEm:
 357              	.LFB13:
  80:src/k_FIFOList.cpp **** 
 358              		.loc 1 80 44 is_stmt 1
GAS LISTING /tmp/cceAlX61.s 			page 11


 359              		.cfi_startproc
 360              	.LVL29:
 361 01ec 130101FF 		addi	sp,sp,-16
 362              		.cfi_def_cfa_offset 16
 363 01f0 23348100 		sd	s0,8(sp)
 364              		.cfi_offset 8, -8
 365 01f4 13040101 		addi	s0,sp,16
 366              		.cfi_def_cfa 8, 0
  82:src/k_FIFOList.cpp **** 
 367              		.loc 1 82 5
 368              	.LVL30:
 369              	.LBB19:
  82:src/k_FIFOList.cpp **** 
 370              		.loc 1 82 14 is_stmt 0
 371 01f8 93070000 		li	a5,0
 372 01fc 6F008000 		j	.L29
 373              	.LVL31:
 374              	.L28:
  82:src/k_FIFOList.cpp **** 
 375              		.loc 1 82 5 is_stmt 1 discriminator 2
 376 0200 9B871700 		addiw	a5,a5,1
 377              	.LVL32:
 378              	.L29:
  82:src/k_FIFOList.cpp **** 
 379              		.loc 1 82 23 discriminator 1
 380 0204 13073006 		li	a4,99
 381 0208 6340F704 		bgt	a5,a4,.L30
  84:src/k_FIFOList.cpp ****             isOccList[i] = true;
 382              		.loc 1 84 9
  84:src/k_FIFOList.cpp ****             isOccList[i] = true;
 383              		.loc 1 84 25 is_stmt 0
 384 020c 17070000 		lla	a4,.LANCHOR0
 384      13070700 
 385 0214 3307F700 		add	a4,a4,a5
 386 0218 0347076C 		lbu	a4,1728(a4)
  84:src/k_FIFOList.cpp ****             isOccList[i] = true;
 387              		.loc 1 84 9
 388 021c E31207FE 		bnez	a4,.L28
  85:src/k_FIFOList.cpp ****             return (void *) (allLists + i);
 389              		.loc 1 85 13 is_stmt 1
  85:src/k_FIFOList.cpp ****             return (void *) (allLists + i);
 390              		.loc 1 85 26 is_stmt 0
 391 0220 17050000 		lla	a0,.LANCHOR0
 391      13050500 
 392              	.LVL33:
 393 0228 3307F500 		add	a4,a0,a5
 394 022c 93061000 		li	a3,1
 395 0230 2300D76C 		sb	a3,1728(a4)
  86:src/k_FIFOList.cpp ****         }
 396              		.loc 1 86 13 is_stmt 1
  86:src/k_FIFOList.cpp ****         }
 397              		.loc 1 86 39 is_stmt 0
 398 0234 93974700 		slli	a5,a5,4
 399              	.LVL34:
  86:src/k_FIFOList.cpp ****         }
 400              		.loc 1 86 42
 401 0238 3305F500 		add	a0,a0,a5
GAS LISTING /tmp/cceAlX61.s 			page 12


 402              	.L26:
 403              	.LBE19:
  94:src/k_FIFOList.cpp **** 
 404              		.loc 1 94 1
 405 023c 03348100 		ld	s0,8(sp)
 406              		.cfi_remember_state
 407              		.cfi_restore 8
 408              		.cfi_def_cfa 2, 16
 409 0240 13010101 		addi	sp,sp,16
 410              		.cfi_def_cfa_offset 0
 411 0244 67800000 		jr	ra
 412              	.LVL35:
 413              	.L30:
 414              		.cfi_restore_state
  90:src/k_FIFOList.cpp **** 
 415              		.loc 1 90 12
 416 0248 17050000 		lla	a0,.LANCHOR0
 416      13050500 
 417              	.LVL36:
 418 0250 6FF0DFFE 		j	.L26
 419              		.cfi_endproc
 420              	.LFE13:
 422              		.align	2
 423              		.globl	_ZN9_fifoListdlEPv
 425              	_ZN9_fifoListdlEPv:
 426              	.LFB14:
  96:src/k_FIFOList.cpp **** 
 427              		.loc 1 96 53 is_stmt 1
 428              		.cfi_startproc
 429              	.LVL37:
 430 0254 130101FF 		addi	sp,sp,-16
 431              		.cfi_def_cfa_offset 16
 432 0258 23348100 		sd	s0,8(sp)
 433              		.cfi_offset 8, -8
 434 025c 13040101 		addi	s0,sp,16
 435              		.cfi_def_cfa 8, 0
  98:src/k_FIFOList.cpp ****     isOccList[index] = false;
 436              		.loc 1 98 5
  98:src/k_FIFOList.cpp ****     isOccList[index] = false;
 437              		.loc 1 98 34 is_stmt 0
 438 0260 97070000 		lla	a5,.LANCHOR0
 438      93870700 
 439 0268 3305F540 		sub	a0,a0,a5
 440              	.LVL38:
 441 026c 13554540 		srai	a0,a0,4
 442              	.LVL39:
  98:src/k_FIFOList.cpp ****     isOccList[index] = false;
 443              		.loc 1 98 9
 444 0270 1B050500 		sext.w	a0,a0
 445              	.LVL40:
  99:src/k_FIFOList.cpp **** 
 446              		.loc 1 99 5 is_stmt 1
  99:src/k_FIFOList.cpp **** 
 447              		.loc 1 99 22 is_stmt 0
 448 0274 3385A700 		add	a0,a5,a0
 449              	.LVL41:
 450 0278 2300056C 		sb	zero,1728(a0)
GAS LISTING /tmp/cceAlX61.s 			page 13


 451              		.loc 1 101 1
 452 027c 03348100 		ld	s0,8(sp)
 453              		.cfi_restore 8
 454              		.cfi_def_cfa 2, 16
 455 0280 13010101 		addi	sp,sp,16
 456              		.cfi_def_cfa_offset 0
 457 0284 67800000 		jr	ra
 458              		.cfi_endproc
 459              	.LFE14:
 461              		.align	2
 463              	_GLOBAL__sub_I__ZN9_fifoList11insertAtEndEP7_thread:
 464              	.LFB16:
 465              		.loc 1 101 1 is_stmt 1
 466              		.cfi_startproc
 467 0288 130101FF 		addi	sp,sp,-16
 468              		.cfi_def_cfa_offset 16
 469 028c 23341100 		sd	ra,8(sp)
 470 0290 23308100 		sd	s0,0(sp)
 471              		.cfi_offset 1, -8
 472              		.cfi_offset 8, -16
 473 0294 13040101 		addi	s0,sp,16
 474              		.cfi_def_cfa 8, 0
 475              		.loc 1 101 1 is_stmt 0
 476 0298 B7050100 		li	a1,65536
 477 029c 9385F5FF 		addi	a1,a1,-1
 478 02a0 13051000 		li	a0,1
 479 02a4 97000000 		call	_Z41__static_initialization_and_destruction_0ii
 479      E7800000 
 480              	.LVL42:
 481 02ac 83308100 		ld	ra,8(sp)
 482              		.cfi_restore 1
 483 02b0 03340100 		ld	s0,0(sp)
 484              		.cfi_restore 8
 485              		.cfi_def_cfa 2, 16
 486 02b4 13010101 		addi	sp,sp,16
 487              		.cfi_def_cfa_offset 0
 488 02b8 67800000 		jr	ra
 489              		.cfi_endproc
 490              	.LFE16:
 492              		.section	.init_array,"aw"
 493              		.align	3
 494 0000 00000000 		.dword	_GLOBAL__sub_I__ZN9_fifoList11insertAtEndEP7_thread
 494      00000000 
 495              		.bss
 496              		.align	3
 497              		.set	.LANCHOR0,. + 0
 500              	_ZL8allLists:
 501 0000 00000000 		.zero	1600
 501      00000000 
 501      00000000 
 501      00000000 
 501      00000000 
 504              	_ZL5isOcc:
 505 0640 00000000 		.zero	128
 505      00000000 
 505      00000000 
 505      00000000 
GAS LISTING /tmp/cceAlX61.s 			page 14


 505      00000000 
 508              	_ZL9isOccList:
 509 06c0 00000000 		.zero	100
 509      00000000 
 509      00000000 
 509      00000000 
 509      00000000 
 510 0724 00000000 		.zero	4
 513              	_ZL8allNodes:
 514 0728 00000000 		.zero	2048
 514      00000000 
 514      00000000 
 514      00000000 
 514      00000000 
 515              		.text
 516              	.Letext0:
 517              		.file 3 "src/../h/../lib/hw.h"
 518              		.file 4 "src/../h/k_thread.hpp"
GAS LISTING /tmp/cceAlX61.s 			page 15

