GAS LISTING /tmp/ccRfQeYQ.s 			page 1


   1              		.file	"syscall_cpp.cpp"
   2              		.option pic
   3              		.option norelax
   4              		.text
   5              	.Ltext0:
   6              		.section	.text._ZN6Thread3runEv,"axG",@progbits,_ZN6Thread3runEv,comdat
   7              		.align	2
   8              		.weak	_ZN6Thread3runEv
  10              	_ZN6Thread3runEv:
  11              	.LFB9:
  12              		.file 1 "src/../h/syscall_cpp.hpp"
   1:src/../h/syscall_cpp.hpp **** //
   2:src/../h/syscall_cpp.hpp **** // Created by os on 1/26/24.
   3:src/../h/syscall_cpp.hpp **** //
   4:src/../h/syscall_cpp.hpp **** 
   5:src/../h/syscall_cpp.hpp **** #ifndef  _syscall_cpp
   6:src/../h/syscall_cpp.hpp **** #define  _syscall_cpp
   7:src/../h/syscall_cpp.hpp **** 
   8:src/../h/syscall_cpp.hpp **** 
   9:src/../h/syscall_cpp.hpp **** #include "syscall_c.hpp"
  10:src/../h/syscall_cpp.hpp **** 
  11:src/../h/syscall_cpp.hpp **** void* operator new (size_t);
  12:src/../h/syscall_cpp.hpp **** 
  13:src/../h/syscall_cpp.hpp **** void operator delete (void*) noexcept;
  14:src/../h/syscall_cpp.hpp **** 
  15:src/../h/syscall_cpp.hpp **** class Thread {
  16:src/../h/syscall_cpp.hpp **** 
  17:src/../h/syscall_cpp.hpp **** public:
  18:src/../h/syscall_cpp.hpp **** 
  19:src/../h/syscall_cpp.hpp ****     Thread (void (*body)(void*), void* arg);
  20:src/../h/syscall_cpp.hpp **** 
  21:src/../h/syscall_cpp.hpp ****     virtual ~Thread ();
  22:src/../h/syscall_cpp.hpp **** 
  23:src/../h/syscall_cpp.hpp ****     int start ();
  24:src/../h/syscall_cpp.hpp **** 
  25:src/../h/syscall_cpp.hpp ****     void join();
  26:src/../h/syscall_cpp.hpp **** 
  27:src/../h/syscall_cpp.hpp ****     static void dispatch ();
  28:src/../h/syscall_cpp.hpp **** 
  29:src/../h/syscall_cpp.hpp ****    // static int sleep (time_t);
  30:src/../h/syscall_cpp.hpp **** 
  31:src/../h/syscall_cpp.hpp ****    static void tw(void* arg);
  32:src/../h/syscall_cpp.hpp **** 
  33:src/../h/syscall_cpp.hpp **** protected:
  34:src/../h/syscall_cpp.hpp **** 
  35:src/../h/syscall_cpp.hpp ****     Thread ();
  36:src/../h/syscall_cpp.hpp **** 
  37:src/../h/syscall_cpp.hpp ****     virtual void run () {}
  13              		.loc 1 37 18
  14              		.cfi_startproc
  15              	.LVL0:
  16 0000 130101FF 		addi	sp,sp,-16
  17              		.cfi_def_cfa_offset 16
  18 0004 23348100 		sd	s0,8(sp)
  19              		.cfi_offset 8, -8
  20 0008 13040101 		addi	s0,sp,16
  21              		.cfi_def_cfa 8, 0
GAS LISTING /tmp/ccRfQeYQ.s 			page 2


  22              		.loc 1 37 26 is_stmt 0
  23 000c 03348100 		ld	s0,8(sp)
  24              		.cfi_restore 8
  25              		.cfi_def_cfa 2, 16
  26 0010 13010101 		addi	sp,sp,16
  27              		.cfi_def_cfa_offset 0
  28 0014 67800000 		jr	ra
  29              		.cfi_endproc
  30              	.LFE9:
  32              		.text
  33              		.align	2
  34              		.globl	_ZN6Thread2twEPv
  36              	_ZN6Thread2twEPv:
  37              	.LFB25:
  38              		.file 2 "src/syscall_cpp.cpp"
   1:src/syscall_cpp.cpp **** //
   2:src/syscall_cpp.cpp **** // Created by os on 1/26/24.
   3:src/syscall_cpp.cpp **** //
   4:src/syscall_cpp.cpp **** #include "../h/syscall_cpp.hpp"
   5:src/syscall_cpp.cpp **** 
   6:src/syscall_cpp.cpp **** void* operator new (size_t size){
   7:src/syscall_cpp.cpp ****     return mem_alloc(size);
   8:src/syscall_cpp.cpp **** }
   9:src/syscall_cpp.cpp **** 
  10:src/syscall_cpp.cpp **** void operator delete (void* ptr) noexcept{
  11:src/syscall_cpp.cpp ****     mem_free(ptr);
  12:src/syscall_cpp.cpp **** }
  13:src/syscall_cpp.cpp **** 
  14:src/syscall_cpp.cpp **** Thread::Thread (void (*body)(void*), void* arg){
  15:src/syscall_cpp.cpp ****     this->body = body;
  16:src/syscall_cpp.cpp ****     this->arg  = arg;
  17:src/syscall_cpp.cpp **** }
  18:src/syscall_cpp.cpp **** 
  19:src/syscall_cpp.cpp **** Thread::~Thread (){
  20:src/syscall_cpp.cpp ****     delete myHandle;
  21:src/syscall_cpp.cpp **** }
  22:src/syscall_cpp.cpp **** 
  23:src/syscall_cpp.cpp **** int Thread::start (){
  24:src/syscall_cpp.cpp ****     return thread_create(&myHandle,body,arg);
  25:src/syscall_cpp.cpp **** }
  26:src/syscall_cpp.cpp **** 
  27:src/syscall_cpp.cpp **** void Thread::join(){
  28:src/syscall_cpp.cpp ****     thread_join(myHandle);
  29:src/syscall_cpp.cpp **** }
  30:src/syscall_cpp.cpp **** 
  31:src/syscall_cpp.cpp **** void Thread::dispatch (){
  32:src/syscall_cpp.cpp ****     thread_dispatch();
  33:src/syscall_cpp.cpp **** }
  34:src/syscall_cpp.cpp **** 
  35:src/syscall_cpp.cpp **** 
  36:src/syscall_cpp.cpp **** Thread::Thread (){
  37:src/syscall_cpp.cpp ****     body = tw ;
  38:src/syscall_cpp.cpp ****     arg = this;
  39:src/syscall_cpp.cpp **** }
  40:src/syscall_cpp.cpp **** 
  41:src/syscall_cpp.cpp **** void Thread::tw(void *arg) {
  39              		.loc 2 41 28 is_stmt 1
GAS LISTING /tmp/ccRfQeYQ.s 			page 3


  40              		.cfi_startproc
  41              	.LVL1:
  42:src/syscall_cpp.cpp ****     if(arg!= nullptr)
  42              		.loc 2 42 5
  43 0000 63080502 		beqz	a0,.L6
  41:src/syscall_cpp.cpp ****     if(arg!= nullptr)
  44              		.loc 2 41 28 is_stmt 0
  45 0004 130101FF 		addi	sp,sp,-16
  46              		.cfi_def_cfa_offset 16
  47 0008 23341100 		sd	ra,8(sp)
  48 000c 23308100 		sd	s0,0(sp)
  49              		.cfi_offset 1, -8
  50              		.cfi_offset 8, -16
  51 0010 13040101 		addi	s0,sp,16
  52              		.cfi_def_cfa 8, 0
  43:src/syscall_cpp.cpp ****         ((Thread*)arg)->run();
  53              		.loc 2 43 9 is_stmt 1
  54              		.loc 2 43 29 is_stmt 0
  55 0014 83370500 		ld	a5,0(a0)
  56 0018 83B70701 		ld	a5,16(a5)
  57              		.loc 2 43 28
  58 001c E7800700 		jalr	a5
  59              	.LVL2:
  44:src/syscall_cpp.cpp **** }
  60              		.loc 2 44 1
  61 0020 83308100 		ld	ra,8(sp)
  62              		.cfi_restore 1
  63 0024 03340100 		ld	s0,0(sp)
  64              		.cfi_restore 8
  65              		.cfi_def_cfa 2, 16
  66 0028 13010101 		addi	sp,sp,16
  67              		.cfi_def_cfa_offset 0
  68 002c 67800000 		jr	ra
  69              	.LVL3:
  70              	.L6:
  71 0030 67800000 		ret
  72              		.cfi_endproc
  73              	.LFE25:
  75              		.align	2
  76              		.globl	_ZN6ThreadD2Ev
  78              	_ZN6ThreadD2Ev:
  79              	.LFB16:
  19:src/syscall_cpp.cpp ****     delete myHandle;
  80              		.loc 2 19 1 is_stmt 1
  81              		.cfi_startproc
  82              	.LVL4:
  83              	.LBB2:
  19:src/syscall_cpp.cpp ****     delete myHandle;
  84              		.loc 2 19 18 is_stmt 0
  85 0034 97070000 		lla	a5,_ZTV6Thread+16
  85      93870700 
  86 003c 2330F500 		sd	a5,0(a0)
  20:src/syscall_cpp.cpp **** }
  87              		.loc 2 20 5 is_stmt 1
  20:src/syscall_cpp.cpp **** }
  88              		.loc 2 20 12 is_stmt 0
  89 0040 03358500 		ld	a0,8(a0)
GAS LISTING /tmp/ccRfQeYQ.s 			page 4


  90              	.LVL5:
  20:src/syscall_cpp.cpp **** }
  91              		.loc 2 20 20
  92 0044 63060502 		beqz	a0,.L12
  93              	.LBE2:
  19:src/syscall_cpp.cpp ****     delete myHandle;
  94              		.loc 2 19 1 discriminator 1
  95 0048 130101FF 		addi	sp,sp,-16
  96              		.cfi_def_cfa_offset 16
  97 004c 23341100 		sd	ra,8(sp)
  98 0050 23308100 		sd	s0,0(sp)
  99              		.cfi_offset 1, -8
 100              		.cfi_offset 8, -16
 101 0054 13040101 		addi	s0,sp,16
 102              		.cfi_def_cfa 8, 0
 103              	.LBB3:
  20:src/syscall_cpp.cpp **** }
 104              		.loc 2 20 12 discriminator 1
 105 0058 97000000 		call	_ZN7_threaddlEPv@plt
 105      E7800000 
 106              	.LVL6:
 107              	.LBE3:
  21:src/syscall_cpp.cpp **** 
 108              		.loc 2 21 1 discriminator 1
 109 0060 83308100 		ld	ra,8(sp)
 110              		.cfi_restore 1
 111 0064 03340100 		ld	s0,0(sp)
 112              		.cfi_restore 8
 113              		.cfi_def_cfa 2, 16
 114 0068 13010101 		addi	sp,sp,16
 115              		.cfi_def_cfa_offset 0
 116 006c 67800000 		jr	ra
 117              	.L12:
 118 0070 67800000 		ret
 119              		.cfi_endproc
 120              	.LFE16:
 122              		.globl	_ZN6ThreadD1Ev
 123              		.set	_ZN6ThreadD1Ev,_ZN6ThreadD2Ev
 124              		.align	2
 125              		.globl	_ZN9SemaphoreD2Ev
 127              	_ZN9SemaphoreD2Ev:
 128              	.LFB30:
  45:src/syscall_cpp.cpp **** 
  46:src/syscall_cpp.cpp **** 
  47:src/syscall_cpp.cpp **** Semaphore::Semaphore (unsigned init){
  48:src/syscall_cpp.cpp ****     sem_open(&myHandle, init);
  49:src/syscall_cpp.cpp **** }
  50:src/syscall_cpp.cpp **** 
  51:src/syscall_cpp.cpp **** Semaphore::~Semaphore (){
 129              		.loc 2 51 1 is_stmt 1
 130              		.cfi_startproc
 131              	.LVL7:
 132              	.LBB4:
 133              		.loc 2 51 24 is_stmt 0
 134 0074 97070000 		lla	a5,_ZTV9Semaphore+16
 134      93870700 
 135 007c 2330F500 		sd	a5,0(a0)
GAS LISTING /tmp/ccRfQeYQ.s 			page 5


  52:src/syscall_cpp.cpp ****     delete myHandle;
 136              		.loc 2 52 5 is_stmt 1
 137              		.loc 2 52 12 is_stmt 0
 138 0080 03358500 		ld	a0,8(a0)
 139              	.LVL8:
 140              		.loc 2 52 20
 141 0084 63060502 		beqz	a0,.L18
 142              	.LBE4:
  51:src/syscall_cpp.cpp ****     delete myHandle;
 143              		.loc 2 51 1 discriminator 1
 144 0088 130101FF 		addi	sp,sp,-16
 145              		.cfi_def_cfa_offset 16
 146 008c 23341100 		sd	ra,8(sp)
 147 0090 23308100 		sd	s0,0(sp)
 148              		.cfi_offset 1, -8
 149              		.cfi_offset 8, -16
 150 0094 13040101 		addi	s0,sp,16
 151              		.cfi_def_cfa 8, 0
 152              	.LBB5:
 153              		.loc 2 52 12 discriminator 1
 154 0098 97000000 		call	_ZN4_semdlEPv@plt
 154      E7800000 
 155              	.LVL9:
 156              	.LBE5:
  53:src/syscall_cpp.cpp **** }
 157              		.loc 2 53 1 discriminator 1
 158 00a0 83308100 		ld	ra,8(sp)
 159              		.cfi_restore 1
 160 00a4 03340100 		ld	s0,0(sp)
 161              		.cfi_restore 8
 162              		.cfi_def_cfa 2, 16
 163 00a8 13010101 		addi	sp,sp,16
 164              		.cfi_def_cfa_offset 0
 165 00ac 67800000 		jr	ra
 166              	.L18:
 167 00b0 67800000 		ret
 168              		.cfi_endproc
 169              	.LFE30:
 171              		.globl	_ZN9SemaphoreD1Ev
 172              		.set	_ZN9SemaphoreD1Ev,_ZN9SemaphoreD2Ev
 173              		.align	2
 174              		.globl	_Znwm
 176              	_Znwm:
 177              	.LFB10:
   6:src/syscall_cpp.cpp ****     return mem_alloc(size);
 178              		.loc 2 6 33 is_stmt 1
 179              		.cfi_startproc
 180              	.LVL10:
 181 00b4 130101FF 		addi	sp,sp,-16
 182              		.cfi_def_cfa_offset 16
 183 00b8 23341100 		sd	ra,8(sp)
 184 00bc 23308100 		sd	s0,0(sp)
 185              		.cfi_offset 1, -8
 186              		.cfi_offset 8, -16
 187 00c0 13040101 		addi	s0,sp,16
 188              		.cfi_def_cfa 8, 0
   7:src/syscall_cpp.cpp **** }
GAS LISTING /tmp/ccRfQeYQ.s 			page 6


 189              		.loc 2 7 5
   7:src/syscall_cpp.cpp **** }
 190              		.loc 2 7 21 is_stmt 0
 191 00c4 97000000 		call	_Z9mem_allocm@plt
 191      E7800000 
 192              	.LVL11:
   8:src/syscall_cpp.cpp **** 
 193              		.loc 2 8 1
 194 00cc 83308100 		ld	ra,8(sp)
 195              		.cfi_restore 1
 196 00d0 03340100 		ld	s0,0(sp)
 197              		.cfi_restore 8
 198              		.cfi_def_cfa 2, 16
 199 00d4 13010101 		addi	sp,sp,16
 200              		.cfi_def_cfa_offset 0
 201 00d8 67800000 		jr	ra
 202              		.cfi_endproc
 203              	.LFE10:
 205              		.align	2
 206              		.globl	_ZdlPv
 208              	_ZdlPv:
 209              	.LFB11:
  10:src/syscall_cpp.cpp ****     mem_free(ptr);
 210              		.loc 2 10 42 is_stmt 1
 211              		.cfi_startproc
 212              		.cfi_personality 0x9b,DW.ref.__gxx_personality_v0
 213              		.cfi_lsda 0x1b,.LLSDA11
 214              	.LVL12:
 215 00dc 130101FF 		addi	sp,sp,-16
 216              		.cfi_def_cfa_offset 16
 217 00e0 23341100 		sd	ra,8(sp)
 218 00e4 23308100 		sd	s0,0(sp)
 219              		.cfi_offset 1, -8
 220              		.cfi_offset 8, -16
 221 00e8 13040101 		addi	s0,sp,16
 222              		.cfi_def_cfa 8, 0
  11:src/syscall_cpp.cpp **** }
 223              		.loc 2 11 5
  11:src/syscall_cpp.cpp **** }
 224              		.loc 2 11 13 is_stmt 0
 225 00ec 97000000 		call	_Z8mem_freePv@plt
 225      E7800000 
 226              	.LVL13:
  12:src/syscall_cpp.cpp **** 
 227              		.loc 2 12 1
 228 00f4 83308100 		ld	ra,8(sp)
 229              		.cfi_restore 1
 230 00f8 03340100 		ld	s0,0(sp)
 231              		.cfi_restore 8
 232              		.cfi_def_cfa 2, 16
 233 00fc 13010101 		addi	sp,sp,16
 234              		.cfi_def_cfa_offset 0
 235 0100 67800000 		jr	ra
 236              		.cfi_endproc
 237              	.LFE11:
 238              		.globl	__gxx_personality_v0
 239              		.section	.gcc_except_table,"a",@progbits
GAS LISTING /tmp/ccRfQeYQ.s 			page 7


 240              	.LLSDA11:
 241 0000 FF       		.byte	0xff
 242 0001 FF       		.byte	0xff
 243 0002 03       		.byte	0x3
 244 0003 00       		.byte	0
 245              		.text
 247              		.align	2
 248              		.globl	_ZN6ThreadD0Ev
 250              	_ZN6ThreadD0Ev:
 251              	.LFB18:
  19:src/syscall_cpp.cpp ****     delete myHandle;
 252              		.loc 2 19 1 is_stmt 1
 253              		.cfi_startproc
 254              	.LVL14:
 255 0104 130101FE 		addi	sp,sp,-32
 256              		.cfi_def_cfa_offset 32
 257 0108 233C1100 		sd	ra,24(sp)
 258 010c 23388100 		sd	s0,16(sp)
 259 0110 23349100 		sd	s1,8(sp)
 260              		.cfi_offset 1, -8
 261              		.cfi_offset 8, -16
 262              		.cfi_offset 9, -24
 263 0114 13040102 		addi	s0,sp,32
 264              		.cfi_def_cfa 8, 0
 265 0118 93040500 		mv	s1,a0
  21:src/syscall_cpp.cpp **** 
 266              		.loc 2 21 1 is_stmt 0
 267 011c 97000000 		call	_ZN6ThreadD1Ev
 267      E7800000 
 268              	.LVL15:
 269 0124 13850400 		mv	a0,s1
 270 0128 97000000 		call	_ZdlPv
 270      E7800000 
 271              	.LVL16:
 272 0130 83308101 		ld	ra,24(sp)
 273              		.cfi_restore 1
 274 0134 03340101 		ld	s0,16(sp)
 275              		.cfi_restore 8
 276              		.cfi_def_cfa 2, 32
 277 0138 83348100 		ld	s1,8(sp)
 278              		.cfi_restore 9
 279              	.LVL17:
 280 013c 13010102 		addi	sp,sp,32
 281              		.cfi_def_cfa_offset 0
 282 0140 67800000 		jr	ra
 283              		.cfi_endproc
 284              	.LFE18:
 286              		.align	2
 287              		.globl	_ZN9SemaphoreD0Ev
 289              	_ZN9SemaphoreD0Ev:
 290              	.LFB32:
  51:src/syscall_cpp.cpp ****     delete myHandle;
 291              		.loc 2 51 1 is_stmt 1
 292              		.cfi_startproc
 293              	.LVL18:
 294 0144 130101FE 		addi	sp,sp,-32
 295              		.cfi_def_cfa_offset 32
GAS LISTING /tmp/ccRfQeYQ.s 			page 8


 296 0148 233C1100 		sd	ra,24(sp)
 297 014c 23388100 		sd	s0,16(sp)
 298 0150 23349100 		sd	s1,8(sp)
 299              		.cfi_offset 1, -8
 300              		.cfi_offset 8, -16
 301              		.cfi_offset 9, -24
 302 0154 13040102 		addi	s0,sp,32
 303              		.cfi_def_cfa 8, 0
 304 0158 93040500 		mv	s1,a0
 305              		.loc 2 53 1 is_stmt 0
 306 015c 97000000 		call	_ZN9SemaphoreD1Ev
 306      E7800000 
 307              	.LVL19:
 308 0164 13850400 		mv	a0,s1
 309 0168 97000000 		call	_ZdlPv
 309      E7800000 
 310              	.LVL20:
 311 0170 83308101 		ld	ra,24(sp)
 312              		.cfi_restore 1
 313 0174 03340101 		ld	s0,16(sp)
 314              		.cfi_restore 8
 315              		.cfi_def_cfa 2, 32
 316 0178 83348100 		ld	s1,8(sp)
 317              		.cfi_restore 9
 318              	.LVL21:
 319 017c 13010102 		addi	sp,sp,32
 320              		.cfi_def_cfa_offset 0
 321 0180 67800000 		jr	ra
 322              		.cfi_endproc
 323              	.LFE32:
 325              		.align	2
 326              		.globl	_ZN6ThreadC2EPFvPvES0_
 328              	_ZN6ThreadC2EPFvPvES0_:
 329              	.LFB13:
  14:src/syscall_cpp.cpp ****     this->body = body;
 330              		.loc 2 14 1 is_stmt 1
 331              		.cfi_startproc
 332              	.LVL22:
 333 0184 130101FF 		addi	sp,sp,-16
 334              		.cfi_def_cfa_offset 16
 335 0188 23348100 		sd	s0,8(sp)
 336              		.cfi_offset 8, -8
 337 018c 13040101 		addi	s0,sp,16
 338              		.cfi_def_cfa 8, 0
 339              	.LBB6:
  14:src/syscall_cpp.cpp ****     this->body = body;
 340              		.loc 2 14 47 is_stmt 0
 341 0190 97070000 		lla	a5,_ZTV6Thread+16
 341      93870700 
 342 0198 2330F500 		sd	a5,0(a0)
  15:src/syscall_cpp.cpp ****     this->arg  = arg;
 343              		.loc 2 15 5 is_stmt 1
  15:src/syscall_cpp.cpp ****     this->arg  = arg;
 344              		.loc 2 15 16 is_stmt 0
 345 019c 2338B500 		sd	a1,16(a0)
  16:src/syscall_cpp.cpp **** }
 346              		.loc 2 16 5 is_stmt 1
GAS LISTING /tmp/ccRfQeYQ.s 			page 9


  16:src/syscall_cpp.cpp **** }
 347              		.loc 2 16 16 is_stmt 0
 348 01a0 233CC500 		sd	a2,24(a0)
 349              	.LBE6:
  17:src/syscall_cpp.cpp **** 
 350              		.loc 2 17 1
 351 01a4 03348100 		ld	s0,8(sp)
 352              		.cfi_restore 8
 353              		.cfi_def_cfa 2, 16
 354 01a8 13010101 		addi	sp,sp,16
 355              		.cfi_def_cfa_offset 0
 356 01ac 67800000 		jr	ra
 357              		.cfi_endproc
 358              	.LFE13:
 360              		.globl	_ZN6ThreadC1EPFvPvES0_
 361              		.set	_ZN6ThreadC1EPFvPvES0_,_ZN6ThreadC2EPFvPvES0_
 362              		.align	2
 363              		.globl	_ZN6Thread5startEv
 365              	_ZN6Thread5startEv:
 366              	.LFB19:
  23:src/syscall_cpp.cpp ****     return thread_create(&myHandle,body,arg);
 367              		.loc 2 23 21 is_stmt 1
 368              		.cfi_startproc
 369              	.LVL23:
 370 01b0 130101FF 		addi	sp,sp,-16
 371              		.cfi_def_cfa_offset 16
 372 01b4 23341100 		sd	ra,8(sp)
 373 01b8 23308100 		sd	s0,0(sp)
 374              		.cfi_offset 1, -8
 375              		.cfi_offset 8, -16
 376 01bc 13040101 		addi	s0,sp,16
 377              		.cfi_def_cfa 8, 0
  24:src/syscall_cpp.cpp **** }
 378              		.loc 2 24 5
  24:src/syscall_cpp.cpp **** }
 379              		.loc 2 24 25 is_stmt 0
 380 01c0 03368501 		ld	a2,24(a0)
 381 01c4 83350501 		ld	a1,16(a0)
 382 01c8 13058500 		addi	a0,a0,8
 383              	.LVL24:
 384 01cc 97000000 		call	_Z13thread_createPP7_threadPFvPvES2_@plt
 384      E7800000 
 385              	.LVL25:
  25:src/syscall_cpp.cpp **** 
 386              		.loc 2 25 1
 387 01d4 83308100 		ld	ra,8(sp)
 388              		.cfi_restore 1
 389 01d8 03340100 		ld	s0,0(sp)
 390              		.cfi_restore 8
 391              		.cfi_def_cfa 2, 16
 392 01dc 13010101 		addi	sp,sp,16
 393              		.cfi_def_cfa_offset 0
 394 01e0 67800000 		jr	ra
 395              		.cfi_endproc
 396              	.LFE19:
 398              		.align	2
 399              		.globl	_ZN6Thread4joinEv
GAS LISTING /tmp/ccRfQeYQ.s 			page 10


 401              	_ZN6Thread4joinEv:
 402              	.LFB20:
  27:src/syscall_cpp.cpp ****     thread_join(myHandle);
 403              		.loc 2 27 20 is_stmt 1
 404              		.cfi_startproc
 405              	.LVL26:
 406 01e4 130101FF 		addi	sp,sp,-16
 407              		.cfi_def_cfa_offset 16
 408 01e8 23341100 		sd	ra,8(sp)
 409 01ec 23308100 		sd	s0,0(sp)
 410              		.cfi_offset 1, -8
 411              		.cfi_offset 8, -16
 412 01f0 13040101 		addi	s0,sp,16
 413              		.cfi_def_cfa 8, 0
  28:src/syscall_cpp.cpp **** }
 414              		.loc 2 28 5
  28:src/syscall_cpp.cpp **** }
 415              		.loc 2 28 16 is_stmt 0
 416 01f4 03358500 		ld	a0,8(a0)
 417              	.LVL27:
 418 01f8 97000000 		call	_Z11thread_joinP7_thread@plt
 418      E7800000 
 419              	.LVL28:
  29:src/syscall_cpp.cpp **** 
 420              		.loc 2 29 1
 421 0200 83308100 		ld	ra,8(sp)
 422              		.cfi_restore 1
 423 0204 03340100 		ld	s0,0(sp)
 424              		.cfi_restore 8
 425              		.cfi_def_cfa 2, 16
 426 0208 13010101 		addi	sp,sp,16
 427              		.cfi_def_cfa_offset 0
 428 020c 67800000 		jr	ra
 429              		.cfi_endproc
 430              	.LFE20:
 432              		.align	2
 433              		.globl	_ZN6Thread8dispatchEv
 435              	_ZN6Thread8dispatchEv:
 436              	.LFB21:
  31:src/syscall_cpp.cpp ****     thread_dispatch();
 437              		.loc 2 31 25 is_stmt 1
 438              		.cfi_startproc
 439 0210 130101FF 		addi	sp,sp,-16
 440              		.cfi_def_cfa_offset 16
 441 0214 23341100 		sd	ra,8(sp)
 442 0218 23308100 		sd	s0,0(sp)
 443              		.cfi_offset 1, -8
 444              		.cfi_offset 8, -16
 445 021c 13040101 		addi	s0,sp,16
 446              		.cfi_def_cfa 8, 0
  32:src/syscall_cpp.cpp **** }
 447              		.loc 2 32 5
  32:src/syscall_cpp.cpp **** }
 448              		.loc 2 32 20 is_stmt 0
 449 0220 97000000 		call	_Z15thread_dispatchv@plt
 449      E7800000 
 450              	.LVL29:
GAS LISTING /tmp/ccRfQeYQ.s 			page 11


  33:src/syscall_cpp.cpp **** 
 451              		.loc 2 33 1
 452 0228 83308100 		ld	ra,8(sp)
 453              		.cfi_restore 1
 454 022c 03340100 		ld	s0,0(sp)
 455              		.cfi_restore 8
 456              		.cfi_def_cfa 2, 16
 457 0230 13010101 		addi	sp,sp,16
 458              		.cfi_def_cfa_offset 0
 459 0234 67800000 		jr	ra
 460              		.cfi_endproc
 461              	.LFE21:
 463              		.align	2
 464              		.globl	_ZN6ThreadC2Ev
 466              	_ZN6ThreadC2Ev:
 467              	.LFB23:
  36:src/syscall_cpp.cpp ****     body = tw ;
 468              		.loc 2 36 1 is_stmt 1
 469              		.cfi_startproc
 470              	.LVL30:
 471 0238 130101FF 		addi	sp,sp,-16
 472              		.cfi_def_cfa_offset 16
 473 023c 23348100 		sd	s0,8(sp)
 474              		.cfi_offset 8, -8
 475 0240 13040101 		addi	s0,sp,16
 476              		.cfi_def_cfa 8, 0
 477              	.LBB7:
  36:src/syscall_cpp.cpp ****     body = tw ;
 478              		.loc 2 36 17 is_stmt 0
 479 0244 97070000 		lla	a5,_ZTV6Thread+16
 479      93870700 
 480 024c 2330F500 		sd	a5,0(a0)
  37:src/syscall_cpp.cpp ****     arg = this;
 481              		.loc 2 37 5 is_stmt 1
  37:src/syscall_cpp.cpp ****     arg = this;
 482              		.loc 2 37 10 is_stmt 0
 483 0250 97070000 		lla	a5,_ZN6Thread2twEPv
 483      93870700 
 484 0258 2338F500 		sd	a5,16(a0)
  38:src/syscall_cpp.cpp **** }
 485              		.loc 2 38 5 is_stmt 1
  38:src/syscall_cpp.cpp **** }
 486              		.loc 2 38 9 is_stmt 0
 487 025c 233CA500 		sd	a0,24(a0)
 488              	.LBE7:
  39:src/syscall_cpp.cpp **** 
 489              		.loc 2 39 1
 490 0260 03348100 		ld	s0,8(sp)
 491              		.cfi_restore 8
 492              		.cfi_def_cfa 2, 16
 493 0264 13010101 		addi	sp,sp,16
 494              		.cfi_def_cfa_offset 0
 495 0268 67800000 		jr	ra
 496              		.cfi_endproc
 497              	.LFE23:
 499              		.globl	_ZN6ThreadC1Ev
 500              		.set	_ZN6ThreadC1Ev,_ZN6ThreadC2Ev
GAS LISTING /tmp/ccRfQeYQ.s 			page 12


 501              		.align	2
 502              		.globl	_ZN9SemaphoreC2Ej
 504              	_ZN9SemaphoreC2Ej:
 505              	.LFB27:
  47:src/syscall_cpp.cpp ****     sem_open(&myHandle, init);
 506              		.loc 2 47 1 is_stmt 1
 507              		.cfi_startproc
 508              	.LVL31:
 509 026c 130101FF 		addi	sp,sp,-16
 510              		.cfi_def_cfa_offset 16
 511 0270 23341100 		sd	ra,8(sp)
 512 0274 23308100 		sd	s0,0(sp)
 513              		.cfi_offset 1, -8
 514              		.cfi_offset 8, -16
 515 0278 13040101 		addi	s0,sp,16
 516              		.cfi_def_cfa 8, 0
 517              	.LBB8:
  47:src/syscall_cpp.cpp ****     sem_open(&myHandle, init);
 518              		.loc 2 47 36 is_stmt 0
 519 027c 97070000 		lla	a5,_ZTV9Semaphore+16
 519      93870700 
 520 0284 2330F500 		sd	a5,0(a0)
  48:src/syscall_cpp.cpp **** }
 521              		.loc 2 48 5 is_stmt 1
  48:src/syscall_cpp.cpp **** }
 522              		.loc 2 48 13 is_stmt 0
 523 0288 13058500 		addi	a0,a0,8
 524              	.LVL32:
 525 028c 97000000 		call	_Z8sem_openPP4_semj@plt
 525      E7800000 
 526              	.LVL33:
 527              	.LBE8:
  49:src/syscall_cpp.cpp **** 
 528              		.loc 2 49 1
 529 0294 83308100 		ld	ra,8(sp)
 530              		.cfi_restore 1
 531 0298 03340100 		ld	s0,0(sp)
 532              		.cfi_restore 8
 533              		.cfi_def_cfa 2, 16
 534 029c 13010101 		addi	sp,sp,16
 535              		.cfi_def_cfa_offset 0
 536 02a0 67800000 		jr	ra
 537              		.cfi_endproc
 538              	.LFE27:
 540              		.globl	_ZN9SemaphoreC1Ej
 541              		.set	_ZN9SemaphoreC1Ej,_ZN9SemaphoreC2Ej
 542              		.align	2
 543              		.globl	_ZN9Semaphore4waitEv
 545              	_ZN9Semaphore4waitEv:
 546              	.LFB33:
  54:src/syscall_cpp.cpp **** 
  55:src/syscall_cpp.cpp **** int Semaphore::wait (){
 547              		.loc 2 55 23 is_stmt 1
 548              		.cfi_startproc
 549              	.LVL34:
 550 02a4 130101FF 		addi	sp,sp,-16
 551              		.cfi_def_cfa_offset 16
GAS LISTING /tmp/ccRfQeYQ.s 			page 13


 552 02a8 23341100 		sd	ra,8(sp)
 553 02ac 23308100 		sd	s0,0(sp)
 554              		.cfi_offset 1, -8
 555              		.cfi_offset 8, -16
 556 02b0 13040101 		addi	s0,sp,16
 557              		.cfi_def_cfa 8, 0
  56:src/syscall_cpp.cpp ****     return sem_wait(myHandle);
 558              		.loc 2 56 5
 559              		.loc 2 56 20 is_stmt 0
 560 02b4 03358500 		ld	a0,8(a0)
 561              	.LVL35:
 562 02b8 97000000 		call	_Z8sem_waitP4_sem@plt
 562      E7800000 
 563              	.LVL36:
  57:src/syscall_cpp.cpp **** }
 564              		.loc 2 57 1
 565 02c0 83308100 		ld	ra,8(sp)
 566              		.cfi_restore 1
 567 02c4 03340100 		ld	s0,0(sp)
 568              		.cfi_restore 8
 569              		.cfi_def_cfa 2, 16
 570 02c8 13010101 		addi	sp,sp,16
 571              		.cfi_def_cfa_offset 0
 572 02cc 67800000 		jr	ra
 573              		.cfi_endproc
 574              	.LFE33:
 576              		.align	2
 577              		.globl	_ZN9Semaphore6signalEv
 579              	_ZN9Semaphore6signalEv:
 580              	.LFB34:
  58:src/syscall_cpp.cpp **** 
  59:src/syscall_cpp.cpp **** int Semaphore::signal (){
 581              		.loc 2 59 25 is_stmt 1
 582              		.cfi_startproc
 583              	.LVL37:
 584 02d0 130101FF 		addi	sp,sp,-16
 585              		.cfi_def_cfa_offset 16
 586 02d4 23341100 		sd	ra,8(sp)
 587 02d8 23308100 		sd	s0,0(sp)
 588              		.cfi_offset 1, -8
 589              		.cfi_offset 8, -16
 590 02dc 13040101 		addi	s0,sp,16
 591              		.cfi_def_cfa 8, 0
  60:src/syscall_cpp.cpp ****     return sem_signal(myHandle);
 592              		.loc 2 60 5
 593              		.loc 2 60 22 is_stmt 0
 594 02e0 03358500 		ld	a0,8(a0)
 595              	.LVL38:
 596 02e4 97000000 		call	_Z10sem_signalP4_sem@plt
 596      E7800000 
 597              	.LVL39:
  61:src/syscall_cpp.cpp **** }
 598              		.loc 2 61 1
 599 02ec 83308100 		ld	ra,8(sp)
 600              		.cfi_restore 1
 601 02f0 03340100 		ld	s0,0(sp)
 602              		.cfi_restore 8
GAS LISTING /tmp/ccRfQeYQ.s 			page 14


 603              		.cfi_def_cfa 2, 16
 604 02f4 13010101 		addi	sp,sp,16
 605              		.cfi_def_cfa_offset 0
 606 02f8 67800000 		jr	ra
 607              		.cfi_endproc
 608              	.LFE34:
 610              		.align	2
 611              		.globl	_ZN9Semaphore7tryWaitEv
 613              	_ZN9Semaphore7tryWaitEv:
 614              	.LFB35:
  62:src/syscall_cpp.cpp **** 
  63:src/syscall_cpp.cpp **** int Semaphore::tryWait (){
 615              		.loc 2 63 26 is_stmt 1
 616              		.cfi_startproc
 617              	.LVL40:
 618 02fc 130101FF 		addi	sp,sp,-16
 619              		.cfi_def_cfa_offset 16
 620 0300 23341100 		sd	ra,8(sp)
 621 0304 23308100 		sd	s0,0(sp)
 622              		.cfi_offset 1, -8
 623              		.cfi_offset 8, -16
 624 0308 13040101 		addi	s0,sp,16
 625              		.cfi_def_cfa 8, 0
  64:src/syscall_cpp.cpp ****     return sem_trywait(myHandle);
 626              		.loc 2 64 5
 627              		.loc 2 64 23 is_stmt 0
 628 030c 03358500 		ld	a0,8(a0)
 629              	.LVL41:
 630 0310 97000000 		call	_Z11sem_trywaitP4_sem@plt
 630      E7800000 
 631              	.LVL42:
  65:src/syscall_cpp.cpp **** }
 632              		.loc 2 65 1
 633 0318 83308100 		ld	ra,8(sp)
 634              		.cfi_restore 1
 635 031c 03340100 		ld	s0,0(sp)
 636              		.cfi_restore 8
 637              		.cfi_def_cfa 2, 16
 638 0320 13010101 		addi	sp,sp,16
 639              		.cfi_def_cfa_offset 0
 640 0324 67800000 		jr	ra
 641              		.cfi_endproc
 642              	.LFE35:
 644              		.align	2
 645              		.globl	_ZN7Console4putcEc
 647              	_ZN7Console4putcEc:
 648              	.LFB36:
  66:src/syscall_cpp.cpp **** 
  67:src/syscall_cpp.cpp **** void Console::putc(char c) {
 649              		.loc 2 67 28 is_stmt 1
 650              		.cfi_startproc
 651              	.LVL43:
 652 0328 130101FF 		addi	sp,sp,-16
 653              		.cfi_def_cfa_offset 16
 654 032c 23341100 		sd	ra,8(sp)
 655 0330 23308100 		sd	s0,0(sp)
 656              		.cfi_offset 1, -8
GAS LISTING /tmp/ccRfQeYQ.s 			page 15


 657              		.cfi_offset 8, -16
 658 0334 13040101 		addi	s0,sp,16
 659              		.cfi_def_cfa 8, 0
  68:src/syscall_cpp.cpp ****     ::putc(c);
 660              		.loc 2 68 5
 661              		.loc 2 68 11 is_stmt 0
 662 0338 97000000 		call	_Z4putcc@plt
 662      E7800000 
 663              	.LVL44:
  69:src/syscall_cpp.cpp **** }
 664              		.loc 2 69 1
 665 0340 83308100 		ld	ra,8(sp)
 666              		.cfi_restore 1
 667 0344 03340100 		ld	s0,0(sp)
 668              		.cfi_restore 8
 669              		.cfi_def_cfa 2, 16
 670 0348 13010101 		addi	sp,sp,16
 671              		.cfi_def_cfa_offset 0
 672 034c 67800000 		jr	ra
 673              		.cfi_endproc
 674              	.LFE36:
 676              		.align	2
 677              		.globl	_ZN7Console4getcEv
 679              	_ZN7Console4getcEv:
 680              	.LFB37:
  70:src/syscall_cpp.cpp **** 
  71:src/syscall_cpp.cpp **** char Console::getc() {
 681              		.loc 2 71 22 is_stmt 1
 682              		.cfi_startproc
 683 0350 130101FF 		addi	sp,sp,-16
 684              		.cfi_def_cfa_offset 16
 685 0354 23341100 		sd	ra,8(sp)
 686 0358 23308100 		sd	s0,0(sp)
 687              		.cfi_offset 1, -8
 688              		.cfi_offset 8, -16
 689 035c 13040101 		addi	s0,sp,16
 690              		.cfi_def_cfa 8, 0
  72:src/syscall_cpp.cpp ****     return ::getc();
 691              		.loc 2 72 5
 692              		.loc 2 72 18 is_stmt 0
 693 0360 97000000 		call	_Z4getcv@plt
 693      E7800000 
 694              	.LVL45:
  73:src/syscall_cpp.cpp **** }...
 695              		.loc 2 73 1
 696 0368 83308100 		ld	ra,8(sp)
 697              		.cfi_restore 1
 698 036c 03340100 		ld	s0,0(sp)
 699              		.cfi_restore 8
 700              		.cfi_def_cfa 2, 16
 701 0370 13010101 		addi	sp,sp,16
 702              		.cfi_def_cfa_offset 0
 703 0374 67800000 		jr	ra
 704              		.cfi_endproc
 705              	.LFE37:
 707              		.weak	_ZTV6Thread
 708              		.section	.data.rel.ro.local._ZTV6Thread,"awG",@progbits,_ZTV6Thread,comdat
GAS LISTING /tmp/ccRfQeYQ.s 			page 16


 709              		.align	3
 712              	_ZTV6Thread:
 713 0000 00000000 		.dword	0
 713      00000000 
 714 0008 00000000 		.dword	0
 714      00000000 
 715 0010 00000000 		.dword	_ZN6ThreadD1Ev
 715      00000000 
 716 0018 00000000 		.dword	_ZN6ThreadD0Ev
 716      00000000 
 717 0020 00000000 		.dword	_ZN6Thread3runEv
 717      00000000 
 718              		.weak	_ZTV9Semaphore
 719              		.section	.data.rel.ro.local._ZTV9Semaphore,"awG",@progbits,_ZTV9Semaphore,comdat
 720              		.align	3
 723              	_ZTV9Semaphore:
 724 0000 00000000 		.dword	0
 724      00000000 
 725 0008 00000000 		.dword	0
 725      00000000 
 726 0010 00000000 		.dword	_ZN9SemaphoreD1Ev
 726      00000000 
 727 0018 00000000 		.dword	_ZN9SemaphoreD0Ev
 727      00000000 
 728              		.text
 729              	.Letext0:
 730              		.file 3 "src/../h/../lib/hw.h"
 731              		.file 4 "src/../h/../h/./k_FIFOList.hpp"
 732              		.file 5 "src/../h/../h/k_thread.hpp"
 733              		.file 6 "src/../h/../h/k_sem.hpp"
 734              		.file 7 "src/../h/syscall_c.hpp"
 3876              		.align	3
 3879              	DW.ref.__gxx_personality_v0:
 3880 0000 00000000 		.dword	__gxx_personality_v0
 3880      00000000 
 3881              		.ident	"GCC: (Ubuntu 9.4.0-1ubuntu1~20.04) 9.4.0"
 3882              		.section	.note.GNU-stack,"",@progbits
GAS LISTING /tmp/ccRfQeYQ.s 			page 17


DEFINED SYMBOLS
                            *ABS*:0000000000000000 syscall_cpp.cpp
     /tmp/ccRfQeYQ.s:10     .text._ZN6Thread3runEv:0000000000000000 _ZN6Thread3runEv
     /tmp/ccRfQeYQ.s:14     .text._ZN6Thread3runEv:0000000000000000 .L0 
     /tmp/ccRfQeYQ.s:16     .text._ZN6Thread3runEv:0000000000000000 .L0 
     /tmp/ccRfQeYQ.s:17     .text._ZN6Thread3runEv:0000000000000004 .L0 
     /tmp/ccRfQeYQ.s:19     .text._ZN6Thread3runEv:0000000000000008 .L0 
     /tmp/ccRfQeYQ.s:21     .text._ZN6Thread3runEv:000000000000000c .L0 
     /tmp/ccRfQeYQ.s:23     .text._ZN6Thread3runEv:000000000000000c .L0 
     /tmp/ccRfQeYQ.s:24     .text._ZN6Thread3runEv:0000000000000010 .L0 
     /tmp/ccRfQeYQ.s:25     .text._ZN6Thread3runEv:0000000000000010 .L0 
     /tmp/ccRfQeYQ.s:27     .text._ZN6Thread3runEv:0000000000000014 .L0 
     /tmp/ccRfQeYQ.s:29     .text._ZN6Thread3runEv:0000000000000018 .L0 
     /tmp/ccRfQeYQ.s:36     .text:0000000000000000 _ZN6Thread2twEPv
     /tmp/ccRfQeYQ.s:40     .text:0000000000000000 .L0 
     /tmp/ccRfQeYQ.s:42     .text:0000000000000000 .L0 
     /tmp/ccRfQeYQ.s:43     .text:0000000000000000 .L0 
     /tmp/ccRfQeYQ.s:45     .text:0000000000000004 .L0 
     /tmp/ccRfQeYQ.s:46     .text:0000000000000008 .L0 
     /tmp/ccRfQeYQ.s:49     .text:0000000000000010 .L0 
     /tmp/ccRfQeYQ.s:50     .text:0000000000000010 .L0 
     /tmp/ccRfQeYQ.s:52     .text:0000000000000014 .L0 
     /tmp/ccRfQeYQ.s:54     .text:0000000000000014 .L0 
     /tmp/ccRfQeYQ.s:55     .text:0000000000000014 .L0 
     /tmp/ccRfQeYQ.s:58     .text:000000000000001c .L0 
     /tmp/ccRfQeYQ.s:61     .text:0000000000000020 .L0 
     /tmp/ccRfQeYQ.s:62     .text:0000000000000024 .L0 
     /tmp/ccRfQeYQ.s:64     .text:0000000000000028 .L0 
     /tmp/ccRfQeYQ.s:65     .text:0000000000000028 .L0 
     /tmp/ccRfQeYQ.s:67     .text:000000000000002c .L0 
     /tmp/ccRfQeYQ.s:72     .text:0000000000000034 .L0 
     /tmp/ccRfQeYQ.s:78     .text:0000000000000034 _ZN6ThreadD2Ev
     /tmp/ccRfQeYQ.s:81     .text:0000000000000034 .L0 
     /tmp/ccRfQeYQ.s:84     .text:0000000000000034 .L0 
     /tmp/ccRfQeYQ.s:712    .data.rel.ro.local._ZTV6Thread:0000000000000000 _ZTV6Thread
     /tmp/ccRfQeYQ.s:85     .text:0000000000000034 .L0 
     /tmp/ccRfQeYQ.s:88     .text:0000000000000040 .L0 
     /tmp/ccRfQeYQ.s:89     .text:0000000000000040 .L0 
     /tmp/ccRfQeYQ.s:92     .text:0000000000000044 .L0 
     /tmp/ccRfQeYQ.s:95     .text:0000000000000048 .L0 
     /tmp/ccRfQeYQ.s:96     .text:000000000000004c .L0 
     /tmp/ccRfQeYQ.s:99     .text:0000000000000054 .L0 
     /tmp/ccRfQeYQ.s:100    .text:0000000000000054 .L0 
     /tmp/ccRfQeYQ.s:102    .text:0000000000000058 .L0 
     /tmp/ccRfQeYQ.s:105    .text:0000000000000058 .L0 
     /tmp/ccRfQeYQ.s:109    .text:0000000000000060 .L0 
     /tmp/ccRfQeYQ.s:110    .text:0000000000000064 .L0 
     /tmp/ccRfQeYQ.s:112    .text:0000000000000068 .L0 
     /tmp/ccRfQeYQ.s:113    .text:0000000000000068 .L0 
     /tmp/ccRfQeYQ.s:115    .text:000000000000006c .L0 
     /tmp/ccRfQeYQ.s:119    .text:0000000000000074 .L0 
     /tmp/ccRfQeYQ.s:78     .text:0000000000000034 _ZN6ThreadD1Ev
     /tmp/ccRfQeYQ.s:127    .text:0000000000000074 _ZN9SemaphoreD2Ev
     /tmp/ccRfQeYQ.s:130    .text:0000000000000074 .L0 
     /tmp/ccRfQeYQ.s:133    .text:0000000000000074 .L0 
     /tmp/ccRfQeYQ.s:723    .data.rel.ro.local._ZTV9Semaphore:0000000000000000 _ZTV9Semaphore
     /tmp/ccRfQeYQ.s:134    .text:0000000000000074 .L0 
GAS LISTING /tmp/ccRfQeYQ.s 			page 18


     /tmp/ccRfQeYQ.s:137    .text:0000000000000080 .L0 
     /tmp/ccRfQeYQ.s:138    .text:0000000000000080 .L0 
     /tmp/ccRfQeYQ.s:141    .text:0000000000000084 .L0 
     /tmp/ccRfQeYQ.s:144    .text:0000000000000088 .L0 
     /tmp/ccRfQeYQ.s:145    .text:000000000000008c .L0 
     /tmp/ccRfQeYQ.s:148    .text:0000000000000094 .L0 
     /tmp/ccRfQeYQ.s:149    .text:0000000000000094 .L0 
     /tmp/ccRfQeYQ.s:151    .text:0000000000000098 .L0 
     /tmp/ccRfQeYQ.s:154    .text:0000000000000098 .L0 
     /tmp/ccRfQeYQ.s:158    .text:00000000000000a0 .L0 
     /tmp/ccRfQeYQ.s:159    .text:00000000000000a4 .L0 
     /tmp/ccRfQeYQ.s:161    .text:00000000000000a8 .L0 
     /tmp/ccRfQeYQ.s:162    .text:00000000000000a8 .L0 
     /tmp/ccRfQeYQ.s:164    .text:00000000000000ac .L0 
     /tmp/ccRfQeYQ.s:168    .text:00000000000000b4 .L0 
     /tmp/ccRfQeYQ.s:127    .text:0000000000000074 _ZN9SemaphoreD1Ev
     /tmp/ccRfQeYQ.s:176    .text:00000000000000b4 _Znwm
     /tmp/ccRfQeYQ.s:179    .text:00000000000000b4 .L0 
     /tmp/ccRfQeYQ.s:181    .text:00000000000000b4 .L0 
     /tmp/ccRfQeYQ.s:182    .text:00000000000000b8 .L0 
     /tmp/ccRfQeYQ.s:185    .text:00000000000000c0 .L0 
     /tmp/ccRfQeYQ.s:186    .text:00000000000000c0 .L0 
     /tmp/ccRfQeYQ.s:188    .text:00000000000000c4 .L0 
     /tmp/ccRfQeYQ.s:190    .text:00000000000000c4 .L0 
     /tmp/ccRfQeYQ.s:191    .text:00000000000000c4 .L0 
     /tmp/ccRfQeYQ.s:194    .text:00000000000000cc .L0 
     /tmp/ccRfQeYQ.s:195    .text:00000000000000d0 .L0 
     /tmp/ccRfQeYQ.s:197    .text:00000000000000d4 .L0 
     /tmp/ccRfQeYQ.s:198    .text:00000000000000d4 .L0 
     /tmp/ccRfQeYQ.s:200    .text:00000000000000d8 .L0 
     /tmp/ccRfQeYQ.s:202    .text:00000000000000dc .L0 
     /tmp/ccRfQeYQ.s:208    .text:00000000000000dc _ZdlPv
     /tmp/ccRfQeYQ.s:211    .text:00000000000000dc .L0 
     /tmp/ccRfQeYQ.s:3879   .data.rel.local.DW.ref.__gxx_personality_v0:0000000000000000 DW.ref.__gxx_personality_v0
     /tmp/ccRfQeYQ.s:215    .text:00000000000000dc .L0 
     /tmp/ccRfQeYQ.s:216    .text:00000000000000e0 .L0 
     /tmp/ccRfQeYQ.s:219    .text:00000000000000e8 .L0 
     /tmp/ccRfQeYQ.s:220    .text:00000000000000e8 .L0 
     /tmp/ccRfQeYQ.s:222    .text:00000000000000ec .L0 
     /tmp/ccRfQeYQ.s:224    .text:00000000000000ec .L0 
     /tmp/ccRfQeYQ.s:225    .text:00000000000000ec .L0 
     /tmp/ccRfQeYQ.s:228    .text:00000000000000f4 .L0 
     /tmp/ccRfQeYQ.s:229    .text:00000000000000f8 .L0 
     /tmp/ccRfQeYQ.s:231    .text:00000000000000fc .L0 
     /tmp/ccRfQeYQ.s:232    .text:00000000000000fc .L0 
     /tmp/ccRfQeYQ.s:234    .text:0000000000000100 .L0 
     /tmp/ccRfQeYQ.s:236    .text:0000000000000104 .L0 
     /tmp/ccRfQeYQ.s:250    .text:0000000000000104 _ZN6ThreadD0Ev
     /tmp/ccRfQeYQ.s:253    .text:0000000000000104 .L0 
     /tmp/ccRfQeYQ.s:255    .text:0000000000000104 .L0 
     /tmp/ccRfQeYQ.s:256    .text:0000000000000108 .L0 
     /tmp/ccRfQeYQ.s:260    .text:0000000000000114 .L0 
     /tmp/ccRfQeYQ.s:261    .text:0000000000000114 .L0 
     /tmp/ccRfQeYQ.s:262    .text:0000000000000114 .L0 
     /tmp/ccRfQeYQ.s:264    .text:0000000000000118 .L0 
     /tmp/ccRfQeYQ.s:267    .text:000000000000011c .L0 
     /tmp/ccRfQeYQ.s:273    .text:0000000000000134 .L0 
GAS LISTING /tmp/ccRfQeYQ.s 			page 19


     /tmp/ccRfQeYQ.s:275    .text:0000000000000138 .L0 
     /tmp/ccRfQeYQ.s:276    .text:0000000000000138 .L0 
     /tmp/ccRfQeYQ.s:278    .text:000000000000013c .L0 
     /tmp/ccRfQeYQ.s:281    .text:0000000000000140 .L0 
     /tmp/ccRfQeYQ.s:283    .text:0000000000000144 .L0 
     /tmp/ccRfQeYQ.s:289    .text:0000000000000144 _ZN9SemaphoreD0Ev
     /tmp/ccRfQeYQ.s:292    .text:0000000000000144 .L0 
     /tmp/ccRfQeYQ.s:294    .text:0000000000000144 .L0 
     /tmp/ccRfQeYQ.s:295    .text:0000000000000148 .L0 
     /tmp/ccRfQeYQ.s:299    .text:0000000000000154 .L0 
     /tmp/ccRfQeYQ.s:300    .text:0000000000000154 .L0 
     /tmp/ccRfQeYQ.s:301    .text:0000000000000154 .L0 
     /tmp/ccRfQeYQ.s:303    .text:0000000000000158 .L0 
     /tmp/ccRfQeYQ.s:306    .text:000000000000015c .L0 
     /tmp/ccRfQeYQ.s:312    .text:0000000000000174 .L0 
     /tmp/ccRfQeYQ.s:314    .text:0000000000000178 .L0 
     /tmp/ccRfQeYQ.s:315    .text:0000000000000178 .L0 
     /tmp/ccRfQeYQ.s:317    .text:000000000000017c .L0 
     /tmp/ccRfQeYQ.s:320    .text:0000000000000180 .L0 
     /tmp/ccRfQeYQ.s:322    .text:0000000000000184 .L0 
     /tmp/ccRfQeYQ.s:328    .text:0000000000000184 _ZN6ThreadC2EPFvPvES0_
     /tmp/ccRfQeYQ.s:331    .text:0000000000000184 .L0 
     /tmp/ccRfQeYQ.s:333    .text:0000000000000184 .L0 
     /tmp/ccRfQeYQ.s:334    .text:0000000000000188 .L0 
     /tmp/ccRfQeYQ.s:336    .text:000000000000018c .L0 
     /tmp/ccRfQeYQ.s:338    .text:0000000000000190 .L0 
     /tmp/ccRfQeYQ.s:341    .text:0000000000000190 .L0 
     /tmp/ccRfQeYQ.s:344    .text:000000000000019c .L0 
     /tmp/ccRfQeYQ.s:345    .text:000000000000019c .L0 
     /tmp/ccRfQeYQ.s:347    .text:00000000000001a0 .L0 
     /tmp/ccRfQeYQ.s:348    .text:00000000000001a0 .L0 
     /tmp/ccRfQeYQ.s:351    .text:00000000000001a4 .L0 
     /tmp/ccRfQeYQ.s:352    .text:00000000000001a8 .L0 
     /tmp/ccRfQeYQ.s:353    .text:00000000000001a8 .L0 
     /tmp/ccRfQeYQ.s:355    .text:00000000000001ac .L0 
     /tmp/ccRfQeYQ.s:357    .text:00000000000001b0 .L0 
     /tmp/ccRfQeYQ.s:328    .text:0000000000000184 _ZN6ThreadC1EPFvPvES0_
     /tmp/ccRfQeYQ.s:365    .text:00000000000001b0 _ZN6Thread5startEv
     /tmp/ccRfQeYQ.s:368    .text:00000000000001b0 .L0 
     /tmp/ccRfQeYQ.s:370    .text:00000000000001b0 .L0 
     /tmp/ccRfQeYQ.s:371    .text:00000000000001b4 .L0 
     /tmp/ccRfQeYQ.s:374    .text:00000000000001bc .L0 
     /tmp/ccRfQeYQ.s:375    .text:00000000000001bc .L0 
     /tmp/ccRfQeYQ.s:377    .text:00000000000001c0 .L0 
     /tmp/ccRfQeYQ.s:379    .text:00000000000001c0 .L0 
     /tmp/ccRfQeYQ.s:380    .text:00000000000001c0 .L0 
     /tmp/ccRfQeYQ.s:387    .text:00000000000001d4 .L0 
     /tmp/ccRfQeYQ.s:388    .text:00000000000001d8 .L0 
     /tmp/ccRfQeYQ.s:390    .text:00000000000001dc .L0 
     /tmp/ccRfQeYQ.s:391    .text:00000000000001dc .L0 
     /tmp/ccRfQeYQ.s:393    .text:00000000000001e0 .L0 
     /tmp/ccRfQeYQ.s:395    .text:00000000000001e4 .L0 
     /tmp/ccRfQeYQ.s:401    .text:00000000000001e4 _ZN6Thread4joinEv
     /tmp/ccRfQeYQ.s:404    .text:00000000000001e4 .L0 
     /tmp/ccRfQeYQ.s:406    .text:00000000000001e4 .L0 
     /tmp/ccRfQeYQ.s:407    .text:00000000000001e8 .L0 
     /tmp/ccRfQeYQ.s:410    .text:00000000000001f0 .L0 
GAS LISTING /tmp/ccRfQeYQ.s 			page 20


     /tmp/ccRfQeYQ.s:411    .text:00000000000001f0 .L0 
     /tmp/ccRfQeYQ.s:413    .text:00000000000001f4 .L0 
     /tmp/ccRfQeYQ.s:415    .text:00000000000001f4 .L0 
     /tmp/ccRfQeYQ.s:416    .text:00000000000001f4 .L0 
     /tmp/ccRfQeYQ.s:421    .text:0000000000000200 .L0 
     /tmp/ccRfQeYQ.s:422    .text:0000000000000204 .L0 
     /tmp/ccRfQeYQ.s:424    .text:0000000000000208 .L0 
     /tmp/ccRfQeYQ.s:425    .text:0000000000000208 .L0 
     /tmp/ccRfQeYQ.s:427    .text:000000000000020c .L0 
     /tmp/ccRfQeYQ.s:429    .text:0000000000000210 .L0 
     /tmp/ccRfQeYQ.s:435    .text:0000000000000210 _ZN6Thread8dispatchEv
     /tmp/ccRfQeYQ.s:438    .text:0000000000000210 .L0 
     /tmp/ccRfQeYQ.s:439    .text:0000000000000210 .L0 
     /tmp/ccRfQeYQ.s:440    .text:0000000000000214 .L0 
     /tmp/ccRfQeYQ.s:443    .text:000000000000021c .L0 
     /tmp/ccRfQeYQ.s:444    .text:000000000000021c .L0 
     /tmp/ccRfQeYQ.s:446    .text:0000000000000220 .L0 
     /tmp/ccRfQeYQ.s:448    .text:0000000000000220 .L0 
     /tmp/ccRfQeYQ.s:449    .text:0000000000000220 .L0 
     /tmp/ccRfQeYQ.s:452    .text:0000000000000228 .L0 
     /tmp/ccRfQeYQ.s:453    .text:000000000000022c .L0 
     /tmp/ccRfQeYQ.s:455    .text:0000000000000230 .L0 
     /tmp/ccRfQeYQ.s:456    .text:0000000000000230 .L0 
     /tmp/ccRfQeYQ.s:458    .text:0000000000000234 .L0 
     /tmp/ccRfQeYQ.s:460    .text:0000000000000238 .L0 
     /tmp/ccRfQeYQ.s:466    .text:0000000000000238 _ZN6ThreadC2Ev
     /tmp/ccRfQeYQ.s:469    .text:0000000000000238 .L0 
     /tmp/ccRfQeYQ.s:471    .text:0000000000000238 .L0 
     /tmp/ccRfQeYQ.s:472    .text:000000000000023c .L0 
     /tmp/ccRfQeYQ.s:474    .text:0000000000000240 .L0 
     /tmp/ccRfQeYQ.s:476    .text:0000000000000244 .L0 
     /tmp/ccRfQeYQ.s:479    .text:0000000000000244 .L0 
     /tmp/ccRfQeYQ.s:482    .text:0000000000000250 .L0 
     /tmp/ccRfQeYQ.s:483    .text:0000000000000250 .L0 
     /tmp/ccRfQeYQ.s:486    .text:000000000000025c .L0 
     /tmp/ccRfQeYQ.s:487    .text:000000000000025c .L0 
     /tmp/ccRfQeYQ.s:490    .text:0000000000000260 .L0 
     /tmp/ccRfQeYQ.s:491    .text:0000000000000264 .L0 
     /tmp/ccRfQeYQ.s:492    .text:0000000000000264 .L0 
     /tmp/ccRfQeYQ.s:494    .text:0000000000000268 .L0 
     /tmp/ccRfQeYQ.s:496    .text:000000000000026c .L0 
     /tmp/ccRfQeYQ.s:466    .text:0000000000000238 _ZN6ThreadC1Ev
     /tmp/ccRfQeYQ.s:504    .text:000000000000026c _ZN9SemaphoreC2Ej
     /tmp/ccRfQeYQ.s:507    .text:000000000000026c .L0 
     /tmp/ccRfQeYQ.s:509    .text:000000000000026c .L0 
     /tmp/ccRfQeYQ.s:510    .text:0000000000000270 .L0 
     /tmp/ccRfQeYQ.s:513    .text:0000000000000278 .L0 
     /tmp/ccRfQeYQ.s:514    .text:0000000000000278 .L0 
     /tmp/ccRfQeYQ.s:516    .text:000000000000027c .L0 
     /tmp/ccRfQeYQ.s:519    .text:000000000000027c .L0 
     /tmp/ccRfQeYQ.s:522    .text:0000000000000288 .L0 
     /tmp/ccRfQeYQ.s:523    .text:0000000000000288 .L0 
     /tmp/ccRfQeYQ.s:529    .text:0000000000000294 .L0 
     /tmp/ccRfQeYQ.s:530    .text:0000000000000298 .L0 
     /tmp/ccRfQeYQ.s:532    .text:000000000000029c .L0 
     /tmp/ccRfQeYQ.s:533    .text:000000000000029c .L0 
     /tmp/ccRfQeYQ.s:535    .text:00000000000002a0 .L0 
GAS LISTING /tmp/ccRfQeYQ.s 			page 21


     /tmp/ccRfQeYQ.s:537    .text:00000000000002a4 .L0 
     /tmp/ccRfQeYQ.s:504    .text:000000000000026c _ZN9SemaphoreC1Ej
     /tmp/ccRfQeYQ.s:545    .text:00000000000002a4 _ZN9Semaphore4waitEv
     /tmp/ccRfQeYQ.s:548    .text:00000000000002a4 .L0 
     /tmp/ccRfQeYQ.s:550    .text:00000000000002a4 .L0 
     /tmp/ccRfQeYQ.s:551    .text:00000000000002a8 .L0 
     /tmp/ccRfQeYQ.s:554    .text:00000000000002b0 .L0 
     /tmp/ccRfQeYQ.s:555    .text:00000000000002b0 .L0 
     /tmp/ccRfQeYQ.s:557    .text:00000000000002b4 .L0 
     /tmp/ccRfQeYQ.s:559    .text:00000000000002b4 .L0 
     /tmp/ccRfQeYQ.s:560    .text:00000000000002b4 .L0 
     /tmp/ccRfQeYQ.s:565    .text:00000000000002c0 .L0 
     /tmp/ccRfQeYQ.s:566    .text:00000000000002c4 .L0 
     /tmp/ccRfQeYQ.s:568    .text:00000000000002c8 .L0 
     /tmp/ccRfQeYQ.s:569    .text:00000000000002c8 .L0 
     /tmp/ccRfQeYQ.s:571    .text:00000000000002cc .L0 
     /tmp/ccRfQeYQ.s:573    .text:00000000000002d0 .L0 
     /tmp/ccRfQeYQ.s:579    .text:00000000000002d0 _ZN9Semaphore6signalEv
     /tmp/ccRfQeYQ.s:582    .text:00000000000002d0 .L0 
     /tmp/ccRfQeYQ.s:584    .text:00000000000002d0 .L0 
     /tmp/ccRfQeYQ.s:585    .text:00000000000002d4 .L0 
     /tmp/ccRfQeYQ.s:588    .text:00000000000002dc .L0 
     /tmp/ccRfQeYQ.s:589    .text:00000000000002dc .L0 
     /tmp/ccRfQeYQ.s:591    .text:00000000000002e0 .L0 
     /tmp/ccRfQeYQ.s:593    .text:00000000000002e0 .L0 
     /tmp/ccRfQeYQ.s:594    .text:00000000000002e0 .L0 
     /tmp/ccRfQeYQ.s:599    .text:00000000000002ec .L0 
     /tmp/ccRfQeYQ.s:600    .text:00000000000002f0 .L0 
     /tmp/ccRfQeYQ.s:602    .text:00000000000002f4 .L0 
     /tmp/ccRfQeYQ.s:603    .text:00000000000002f4 .L0 
     /tmp/ccRfQeYQ.s:605    .text:00000000000002f8 .L0 
     /tmp/ccRfQeYQ.s:607    .text:00000000000002fc .L0 
     /tmp/ccRfQeYQ.s:613    .text:00000000000002fc _ZN9Semaphore7tryWaitEv
     /tmp/ccRfQeYQ.s:616    .text:00000000000002fc .L0 
     /tmp/ccRfQeYQ.s:618    .text:00000000000002fc .L0 
     /tmp/ccRfQeYQ.s:619    .text:0000000000000300 .L0 
     /tmp/ccRfQeYQ.s:622    .text:0000000000000308 .L0 
     /tmp/ccRfQeYQ.s:623    .text:0000000000000308 .L0 
     /tmp/ccRfQeYQ.s:625    .text:000000000000030c .L0 
     /tmp/ccRfQeYQ.s:627    .text:000000000000030c .L0 
     /tmp/ccRfQeYQ.s:628    .text:000000000000030c .L0 
     /tmp/ccRfQeYQ.s:633    .text:0000000000000318 .L0 
     /tmp/ccRfQeYQ.s:634    .text:000000000000031c .L0 
     /tmp/ccRfQeYQ.s:636    .text:0000000000000320 .L0 
     /tmp/ccRfQeYQ.s:637    .text:0000000000000320 .L0 
     /tmp/ccRfQeYQ.s:639    .text:0000000000000324 .L0 
     /tmp/ccRfQeYQ.s:641    .text:0000000000000328 .L0 
     /tmp/ccRfQeYQ.s:647    .text:0000000000000328 _ZN7Console4putcEc
     /tmp/ccRfQeYQ.s:650    .text:0000000000000328 .L0 
     /tmp/ccRfQeYQ.s:652    .text:0000000000000328 .L0 
     /tmp/ccRfQeYQ.s:653    .text:000000000000032c .L0 
     /tmp/ccRfQeYQ.s:656    .text:0000000000000334 .L0 
     /tmp/ccRfQeYQ.s:657    .text:0000000000000334 .L0 
     /tmp/ccRfQeYQ.s:659    .text:0000000000000338 .L0 
     /tmp/ccRfQeYQ.s:661    .text:0000000000000338 .L0 
     /tmp/ccRfQeYQ.s:662    .text:0000000000000338 .L0 
     /tmp/ccRfQeYQ.s:665    .text:0000000000000340 .L0 
GAS LISTING /tmp/ccRfQeYQ.s 			page 22


     /tmp/ccRfQeYQ.s:666    .text:0000000000000344 .L0 
     /tmp/ccRfQeYQ.s:668    .text:0000000000000348 .L0 
     /tmp/ccRfQeYQ.s:669    .text:0000000000000348 .L0 
     /tmp/ccRfQeYQ.s:671    .text:000000000000034c .L0 
     /tmp/ccRfQeYQ.s:673    .text:0000000000000350 .L0 
     /tmp/ccRfQeYQ.s:679    .text:0000000000000350 _ZN7Console4getcEv
     /tmp/ccRfQeYQ.s:682    .text:0000000000000350 .L0 
     /tmp/ccRfQeYQ.s:683    .text:0000000000000350 .L0 
     /tmp/ccRfQeYQ.s:684    .text:0000000000000354 .L0 
     /tmp/ccRfQeYQ.s:687    .text:000000000000035c .L0 
     /tmp/ccRfQeYQ.s:688    .text:000000000000035c .L0 
     /tmp/ccRfQeYQ.s:690    .text:0000000000000360 .L0 
     /tmp/ccRfQeYQ.s:692    .text:0000000000000360 .L0 
     /tmp/ccRfQeYQ.s:693    .text:0000000000000360 .L0 
     /tmp/ccRfQeYQ.s:696    .text:0000000000000368 .L0 
     /tmp/ccRfQeYQ.s:697    .text:000000000000036c .L0 
     /tmp/ccRfQeYQ.s:699    .text:0000000000000370 .L0 
     /tmp/ccRfQeYQ.s:700    .text:0000000000000370 .L0 
     /tmp/ccRfQeYQ.s:702    .text:0000000000000374 .L0 
     /tmp/ccRfQeYQ.s:704    .text:0000000000000378 .L0 
     /tmp/ccRfQeYQ.s:32     .text._ZN6Thread3runEv:0000000000000018 .L0 
     /tmp/ccRfQeYQ.s:735    .text:0000000000000378 .L0 
     /tmp/ccRfQeYQ.s:85     .text:0000000000000034 .L0 
     /tmp/ccRfQeYQ.s:134    .text:0000000000000074 .L0 
     /tmp/ccRfQeYQ.s:341    .text:0000000000000190 .L0 
     /tmp/ccRfQeYQ.s:479    .text:0000000000000244 .L0 
     /tmp/ccRfQeYQ.s:483    .text:0000000000000250 .L0 
     /tmp/ccRfQeYQ.s:519    .text:000000000000027c .L0 
     /tmp/ccRfQeYQ.s:70     .text:0000000000000030 .L6
     /tmp/ccRfQeYQ.s:117    .text:0000000000000070 .L12
     /tmp/ccRfQeYQ.s:166    .text:00000000000000b0 .L18
     /tmp/ccRfQeYQ.s:2309   .debug_abbrev:0000000000000000 .Ldebug_abbrev0
     /tmp/ccRfQeYQ.s:3811   .debug_str:000000000000079f .LASF152
     /tmp/ccRfQeYQ.s:3781   .debug_str:00000000000006a6 .LASF153
     /tmp/ccRfQeYQ.s:3665   .debug_str:0000000000000332 .LASF154
     /tmp/ccRfQeYQ.s:3545   .debug_ranges:0000000000000000 .Ldebug_ranges0
     /tmp/ccRfQeYQ.s:3553   .debug_line:0000000000000000 .Ldebug_line0
     /tmp/ccRfQeYQ.s:3721   .debug_str:00000000000004d6 .LASF0
     /tmp/ccRfQeYQ.s:3737   .debug_str:0000000000000549 .LASF1
     /tmp/ccRfQeYQ.s:3705   .debug_str:000000000000044b .LASF2
     /tmp/ccRfQeYQ.s:3627   .debug_str:0000000000000239 .LASF3
     /tmp/ccRfQeYQ.s:3669   .debug_str:0000000000000359 .LASF4
     /tmp/ccRfQeYQ.s:3791   .debug_str:00000000000006f1 .LASF5
     /tmp/ccRfQeYQ.s:3579   .debug_str:000000000000009a .LASF6
     /tmp/ccRfQeYQ.s:3743   .debug_str:0000000000000576 .LASF7
     /tmp/ccRfQeYQ.s:3719   .debug_str:00000000000004c3 .LASF8
     /tmp/ccRfQeYQ.s:3827   .debug_str:00000000000008c7 .LASF9
     /tmp/ccRfQeYQ.s:3653   .debug_str:00000000000002d2 .LASF10
     /tmp/ccRfQeYQ.s:3759   .debug_str:000000000000060b .LASF11
     /tmp/ccRfQeYQ.s:3815   .debug_str:000000000000087c .LASF12
     /tmp/ccRfQeYQ.s:3585   .debug_str:00000000000000c4 .LASF13
     /tmp/ccRfQeYQ.s:3561   .debug_str:0000000000000023 .LASF14
     /tmp/ccRfQeYQ.s:3599   .debug_str:0000000000000159 .LASF15
     /tmp/ccRfQeYQ.s:3787   .debug_str:00000000000006d2 .LASF16
     /tmp/ccRfQeYQ.s:3611   .debug_str:00000000000001a8 .LASF17
     /tmp/ccRfQeYQ.s:3555   .debug_str:0000000000000000 .LASF18
     /tmp/ccRfQeYQ.s:3575   .debug_str:0000000000000082 .LASF26
GAS LISTING /tmp/ccRfQeYQ.s 			page 23


     /tmp/ccRfQeYQ.s:3729   .debug_str:000000000000050e .LASF155
     /tmp/ccRfQeYQ.s:3569   .debug_str:0000000000000054 .LASF19
     /tmp/ccRfQeYQ.s:3681   .debug_str:00000000000003a7 .LASF20
     /tmp/ccRfQeYQ.s:3751   .debug_str:00000000000005d0 .LASF21
     /tmp/ccRfQeYQ.s:3853   .debug_str:0000000000000991 .LASF22
     /tmp/ccRfQeYQ.s:3741   .debug_str:000000000000056f .LASF23
     /tmp/ccRfQeYQ.s:3677   .debug_str:0000000000000387 .LASF24
     /tmp/ccRfQeYQ.s:3697   .debug_str:0000000000000417 .LASF25
     /tmp/ccRfQeYQ.s:3667   .debug_str:0000000000000349 .LASF27
     /tmp/ccRfQeYQ.s:3679   .debug_str:000000000000038c .LASF28
     /tmp/ccRfQeYQ.s:3847   .debug_str:0000000000000971 .LASF29
     /tmp/ccRfQeYQ.s:3785   .debug_str:00000000000006c2 .LASF30
     /tmp/ccRfQeYQ.s:3797   .debug_str:0000000000000711 .LASF37
     /tmp/ccRfQeYQ.s:3671   .debug_str:0000000000000360 .LASF39
     /tmp/ccRfQeYQ.s:3623   .debug_str:000000000000021b .LASF31
     /tmp/ccRfQeYQ.s:3749   .debug_str:00000000000005a2 .LASF32
     /tmp/ccRfQeYQ.s:3769   .debug_str:0000000000000649 .LASF33
     /tmp/ccRfQeYQ.s:3587   .debug_str:00000000000000d4 .LASF35
     /tmp/ccRfQeYQ.s:3851   .debug_str:0000000000000983 .LASF34
     /tmp/ccRfQeYQ.s:3657   .debug_str:00000000000002e5 .LASF36
     /tmp/ccRfQeYQ.s:3631   .debug_str:0000000000000255 .LASF41
     /tmp/ccRfQeYQ.s:3799   .debug_str:0000000000000721 .LASF43
     /tmp/ccRfQeYQ.s:3699   .debug_str:0000000000000421 .LASF38
     /tmp/ccRfQeYQ.s:3707   .debug_str:0000000000000459 .LASF40
     /tmp/ccRfQeYQ.s:3701   .debug_str:000000000000042f .LASF42
     /tmp/ccRfQeYQ.s:3831   .debug_str:00000000000008fc .LASF44
     /tmp/ccRfQeYQ.s:3869   .debug_str:00000000000009fe .LASF45
     /tmp/ccRfQeYQ.s:3683   .debug_str:00000000000003af .LASF46
     /tmp/ccRfQeYQ.s:3645   .debug_str:0000000000000299 .LASF47
     /tmp/ccRfQeYQ.s:3861   .debug_str:00000000000009cd .LASF48
     /tmp/ccRfQeYQ.s:3647   .debug_str:00000000000002a4 .LASF49
     /tmp/ccRfQeYQ.s:3805   .debug_str:000000000000075a .LASF50
     /tmp/ccRfQeYQ.s:3687   .debug_str:00000000000003de .LASF51
     /tmp/ccRfQeYQ.s:3773   .debug_str:000000000000066a .LASF52
     /tmp/ccRfQeYQ.s:3865   .debug_str:00000000000009ef .LASF53
     /tmp/ccRfQeYQ.s:3565   .debug_str:0000000000000038 .LASF54
     /tmp/ccRfQeYQ.s:3619   .debug_str:00000000000001eb .LASF55
     /tmp/ccRfQeYQ.s:3675   .debug_str:000000000000037a .LASF56
     /tmp/ccRfQeYQ.s:3703   .debug_str:000000000000043d .LASF64
     /tmp/ccRfQeYQ.s:3867   .debug_str:00000000000009f4 .LASF57
     /tmp/ccRfQeYQ.s:3863   .debug_str:00000000000009e9 .LASF58
     /tmp/ccRfQeYQ.s:3845   .debug_str:000000000000096c .LASF59
     /tmp/ccRfQeYQ.s:3819   .debug_str:000000000000089d .LASF60
     /tmp/ccRfQeYQ.s:3615   .debug_str:00000000000001d0 .LASF61
     /tmp/ccRfQeYQ.s:3829   .debug_str:00000000000008d7 .LASF62
     /tmp/ccRfQeYQ.s:3609   .debug_str:0000000000000198 .LASF93
     /tmp/ccRfQeYQ.s:3573   .debug_str:0000000000000061 .LASF95
     /tmp/ccRfQeYQ.s:3613   .debug_str:00000000000001be .LASF63
     /tmp/ccRfQeYQ.s:3723   .debug_str:00000000000004e3 .LASF65
     /tmp/ccRfQeYQ.s:3633   .debug_str:0000000000000267 .LASF66
     /tmp/ccRfQeYQ.s:3849   .debug_str:000000000000097e .LASF67
     /tmp/ccRfQeYQ.s:3825   .debug_str:00000000000008c2 .LASF68
     /tmp/ccRfQeYQ.s:3765   .debug_str:000000000000063b .LASF69
     /tmp/ccRfQeYQ.s:3859   .debug_str:00000000000009c0 .LASF70
     /tmp/ccRfQeYQ.s:3803   .debug_str:000000000000074d .LASF71
     /tmp/ccRfQeYQ.s:3837   .debug_str:0000000000000934 .LASF72
     /tmp/ccRfQeYQ.s:3807   .debug_str:0000000000000775 .LASF73
GAS LISTING /tmp/ccRfQeYQ.s 			page 24


     /tmp/ccRfQeYQ.s:3643   .debug_str:000000000000028d .LASF74
     /tmp/ccRfQeYQ.s:3839   .debug_str:000000000000093f .LASF75
     /tmp/ccRfQeYQ.s:3801   .debug_str:0000000000000742 .LASF76
     /tmp/ccRfQeYQ.s:3813   .debug_str:0000000000000863 .LASF77
     /tmp/ccRfQeYQ.s:3635   .debug_str:000000000000026d .LASF78
     /tmp/ccRfQeYQ.s:3621   .debug_str:0000000000000200 .LASF79
     /tmp/ccRfQeYQ.s:3855   .debug_str:0000000000000996 .LASF80
     /tmp/ccRfQeYQ.s:3857   .debug_str:00000000000009a4 .LASF81
     /tmp/ccRfQeYQ.s:3581   .debug_str:00000000000000a1 .LASF82
     /tmp/ccRfQeYQ.s:3753   .debug_str:00000000000005d6 .LASF83
     /tmp/ccRfQeYQ.s:3639   .debug_str:000000000000027f .LASF84
     /tmp/ccRfQeYQ.s:3663   .debug_str:000000000000032a .LASF85
     /tmp/ccRfQeYQ.s:3563   .debug_str:0000000000000033 .LASF86
     /tmp/ccRfQeYQ.s:3593   .debug_str:000000000000011c .LASF87
     /tmp/ccRfQeYQ.s:3713   .debug_str:00000000000004a7 .LASF88
     /tmp/ccRfQeYQ.s:3739   .debug_str:000000000000055c .LASF89
     /tmp/ccRfQeYQ.s:3747   .debug_str:000000000000059d .LASF90
     /tmp/ccRfQeYQ.s:3557   .debug_str:0000000000000009 .LASF91
     /tmp/ccRfQeYQ.s:3685   .debug_str:00000000000003c9 .LASF103
     /tmp/ccRfQeYQ.s:3577   .debug_str:000000000000008a .LASF105
     /tmp/ccRfQeYQ.s:3817   .debug_str:000000000000088b .LASF92
     /tmp/ccRfQeYQ.s:3779   .debug_str:000000000000069b .LASF108
     /tmp/ccRfQeYQ.s:3595   .debug_str:000000000000012f .LASF110
     /tmp/ccRfQeYQ.s:3637   .debug_str:000000000000027a .LASF94
     /tmp/ccRfQeYQ.s:3775   .debug_str:000000000000066f .LASF96
     /tmp/ccRfQeYQ.s:3607   .debug_str:0000000000000191 .LASF97
     /tmp/ccRfQeYQ.s:3777   .debug_str:0000000000000684 .LASF98
     /tmp/ccRfQeYQ.s:3843   .debug_str:0000000000000964 .LASF99
     /tmp/ccRfQeYQ.s:3597   .debug_str:0000000000000141 .LASF100
     /tmp/ccRfQeYQ.s:3793   .debug_str:0000000000000703 .LASF101
     /tmp/ccRfQeYQ.s:3559   .debug_str:0000000000000013 .LASF156
     /tmp/ccRfQeYQ.s:3821   .debug_str:00000000000008af .LASF102
     /tmp/ccRfQeYQ.s:3715   .debug_str:00000000000004ac .LASF104
     /tmp/ccRfQeYQ.s:3695   .debug_str:000000000000040a .LASF106
     /tmp/ccRfQeYQ.s:3763   .debug_str:0000000000000624 .LASF107
     /tmp/ccRfQeYQ.s:3783   .debug_str:00000000000006ba .LASF109
     /tmp/ccRfQeYQ.s:3727   .debug_str:00000000000004ff .LASF111
     /tmp/ccRfQeYQ.s:3735   .debug_str:0000000000000543 .LASF112
     /tmp/ccRfQeYQ.s:3649   .debug_str:00000000000002b0 .LASF113
     /tmp/ccRfQeYQ.s:3795   .debug_str:000000000000070c .LASF114
     /tmp/ccRfQeYQ.s:3731   .debug_str:000000000000051c .LASF115
     /tmp/ccRfQeYQ.s:3725   .debug_str:00000000000004f6 .LASF116
     /tmp/ccRfQeYQ.s:3583   .debug_str:00000000000000ae .LASF117
     /tmp/ccRfQeYQ.s:3659   .debug_str:0000000000000302 .LASF157
     /tmp/ccRfQeYQ.s:3651   .debug_str:00000000000002c3 .LASF118
     /tmp/ccRfQeYQ.s:3693   .debug_str:00000000000003f9 .LASF158
     /tmp/ccRfQeYQ.s:680    .text:0000000000000350 .LFB37
     /tmp/ccRfQeYQ.s:705    .text:0000000000000378 .LFE37
     /tmp/ccRfQeYQ.s:694    .text:0000000000000368 .LVL45
     /tmp/ccRfQeYQ.s:648    .text:0000000000000328 .LFB36
     /tmp/ccRfQeYQ.s:674    .text:0000000000000350 .LFE36
     /tmp/ccRfQeYQ.s:3296   .debug_loc:0000000000000000 .LLST14
     /tmp/ccRfQeYQ.s:663    .text:0000000000000340 .LVL44
     /tmp/ccRfQeYQ.s:614    .text:00000000000002fc .LFB35
     /tmp/ccRfQeYQ.s:642    .text:0000000000000328 .LFE35
     /tmp/ccRfQeYQ.s:3767   .debug_str:0000000000000644 .LASF119
     /tmp/ccRfQeYQ.s:3310   .debug_loc:0000000000000039 .LLST13
GAS LISTING /tmp/ccRfQeYQ.s 			page 25


     /tmp/ccRfQeYQ.s:631    .text:0000000000000318 .LVL42
     /tmp/ccRfQeYQ.s:580    .text:00000000000002d0 .LFB34
     /tmp/ccRfQeYQ.s:608    .text:00000000000002fc .LFE34
     /tmp/ccRfQeYQ.s:3324   .debug_loc:0000000000000072 .LLST12
     /tmp/ccRfQeYQ.s:597    .text:00000000000002ec .LVL39
     /tmp/ccRfQeYQ.s:546    .text:00000000000002a4 .LFB33
     /tmp/ccRfQeYQ.s:574    .text:00000000000002d0 .LFE33
     /tmp/ccRfQeYQ.s:3338   .debug_loc:00000000000000ab .LLST11
     /tmp/ccRfQeYQ.s:563    .text:00000000000002c0 .LVL36
     /tmp/ccRfQeYQ.s:3761   .debug_str:000000000000061a .LASF120
     /tmp/ccRfQeYQ.s:3871   .debug_str:0000000000000a09 .LASF121
     /tmp/ccRfQeYQ.s:290    .text:0000000000000144 .LFB32
     /tmp/ccRfQeYQ.s:323    .text:0000000000000184 .LFE32
     /tmp/ccRfQeYQ.s:3352   .debug_loc:00000000000000e4 .LLST6
     /tmp/ccRfQeYQ.s:307    .text:0000000000000164 .LVL19
     /tmp/ccRfQeYQ.s:310    .text:0000000000000170 .LVL20
     /tmp/ccRfQeYQ.s:3589   .debug_str:00000000000000f8 .LASF122
     /tmp/ccRfQeYQ.s:128    .text:0000000000000074 .LFB30
     /tmp/ccRfQeYQ.s:169    .text:00000000000000b4 .LFE30
     /tmp/ccRfQeYQ.s:3370   .debug_loc:0000000000000130 .LLST2
     /tmp/ccRfQeYQ.s:155    .text:00000000000000a0 .LVL9
     /tmp/ccRfQeYQ.s:3655   .debug_str:00000000000002e0 .LASF127
     /tmp/ccRfQeYQ.s:3833   .debug_str:0000000000000919 .LASF123
     /tmp/ccRfQeYQ.s:505    .text:000000000000026c .LFB27
     /tmp/ccRfQeYQ.s:538    .text:00000000000002a4 .LFE27
     /tmp/ccRfQeYQ.s:3384   .debug_loc:0000000000000169 .LLST9
     /tmp/ccRfQeYQ.s:3404   .debug_loc:00000000000001b7 .LLST10
     /tmp/ccRfQeYQ.s:526    .text:0000000000000294 .LVL33
     /tmp/ccRfQeYQ.s:37     .text:0000000000000000 .LFB25
     /tmp/ccRfQeYQ.s:73     .text:0000000000000034 .LFE25
     /tmp/ccRfQeYQ.s:3418   .debug_loc:00000000000001f0 .LLST0
     /tmp/ccRfQeYQ.s:59     .text:0000000000000020 .LVL2
     /tmp/ccRfQeYQ.s:3617   .debug_str:00000000000001dc .LASF124
     /tmp/ccRfQeYQ.s:467    .text:0000000000000238 .LFB23
     /tmp/ccRfQeYQ.s:497    .text:000000000000026c .LFE23
     /tmp/ccRfQeYQ.s:436    .text:0000000000000210 .LFB21
     /tmp/ccRfQeYQ.s:461    .text:0000000000000238 .LFE21
     /tmp/ccRfQeYQ.s:450    .text:0000000000000228 .LVL29
     /tmp/ccRfQeYQ.s:402    .text:00000000000001e4 .LFB20
     /tmp/ccRfQeYQ.s:430    .text:0000000000000210 .LFE20
     /tmp/ccRfQeYQ.s:3436   .debug_loc:000000000000023c .LLST8
     /tmp/ccRfQeYQ.s:419    .text:0000000000000200 .LVL28
     /tmp/ccRfQeYQ.s:366    .text:00000000000001b0 .LFB19
     /tmp/ccRfQeYQ.s:396    .text:00000000000001e4 .LFE19
     /tmp/ccRfQeYQ.s:3450   .debug_loc:0000000000000275 .LLST7
     /tmp/ccRfQeYQ.s:385    .text:00000000000001d4 .LVL25
     /tmp/ccRfQeYQ.s:3567   .debug_str:0000000000000045 .LASF125
     /tmp/ccRfQeYQ.s:251    .text:0000000000000104 .LFB18
     /tmp/ccRfQeYQ.s:284    .text:0000000000000144 .LFE18
     /tmp/ccRfQeYQ.s:3470   .debug_loc:00000000000002c3 .LLST5
     /tmp/ccRfQeYQ.s:268    .text:0000000000000124 .LVL15
     /tmp/ccRfQeYQ.s:271    .text:0000000000000130 .LVL16
     /tmp/ccRfQeYQ.s:3809   .debug_str:0000000000000790 .LASF126
     /tmp/ccRfQeYQ.s:79     .text:0000000000000034 .LFB16
     /tmp/ccRfQeYQ.s:120    .text:0000000000000074 .LFE16
     /tmp/ccRfQeYQ.s:3488   .debug_loc:000000000000030f .LLST1
     /tmp/ccRfQeYQ.s:106    .text:0000000000000060 .LVL6
GAS LISTING /tmp/ccRfQeYQ.s 			page 26


     /tmp/ccRfQeYQ.s:3661   .debug_str:0000000000000313 .LASF128
     /tmp/ccRfQeYQ.s:329    .text:0000000000000184 .LFB13
     /tmp/ccRfQeYQ.s:358    .text:00000000000001b0 .LFE13
     /tmp/ccRfQeYQ.s:3571   .debug_str:000000000000005a .LASF129
     /tmp/ccRfQeYQ.s:209    .text:00000000000000dc .LFB11
     /tmp/ccRfQeYQ.s:237    .text:0000000000000104 .LFE11
     /tmp/ccRfQeYQ.s:3502   .debug_loc:0000000000000348 .LLST4
     /tmp/ccRfQeYQ.s:226    .text:00000000000000f4 .LVL13
     /tmp/ccRfQeYQ.s:3691   .debug_str:00000000000003f3 .LASF130
     /tmp/ccRfQeYQ.s:177    .text:00000000000000b4 .LFB10
     /tmp/ccRfQeYQ.s:203    .text:00000000000000dc .LFE10
     /tmp/ccRfQeYQ.s:3717   .debug_str:00000000000004be .LASF131
     /tmp/ccRfQeYQ.s:3516   .debug_loc:0000000000000381 .LLST3
     /tmp/ccRfQeYQ.s:192    .text:00000000000000cc .LVL11
     /tmp/ccRfQeYQ.s:11     .text._ZN6Thread3runEv:0000000000000000 .LFB9
     /tmp/ccRfQeYQ.s:30     .text._ZN6Thread3runEv:0000000000000018 .LFE9
     /tmp/ccRfQeYQ.s:3789   .debug_str:00000000000006e8 .LASF132
     /tmp/ccRfQeYQ.s:3641   .debug_str:0000000000000284 .LASF133
     /tmp/ccRfQeYQ.s:3629   .debug_str:000000000000023f .LASF134
     /tmp/ccRfQeYQ.s:3823   .debug_str:00000000000008b6 .LASF135
     /tmp/ccRfQeYQ.s:3733   .debug_str:000000000000052e .LASF136
     /tmp/ccRfQeYQ.s:3841   .debug_str:0000000000000959 .LASF137
     /tmp/ccRfQeYQ.s:3591   .debug_str:000000000000010a .LASF138
     /tmp/ccRfQeYQ.s:3603   .debug_str:000000000000017a .LASF139
     /tmp/ccRfQeYQ.s:3745   .debug_str:0000000000000589 .LASF140
     /tmp/ccRfQeYQ.s:3835   .debug_str:000000000000092b .LASF141
     /tmp/ccRfQeYQ.s:3601   .debug_str:0000000000000165 .LASF142
     /tmp/ccRfQeYQ.s:3689   .debug_str:00000000000003e3 .LASF143
     /tmp/ccRfQeYQ.s:3757   .debug_str:00000000000005f2 .LASF144
     /tmp/ccRfQeYQ.s:3771   .debug_str:000000000000065e .LASF145
     /tmp/ccRfQeYQ.s:3711   .debug_str:0000000000000482 .LASF146
     /tmp/ccRfQeYQ.s:3625   .debug_str:000000000000022b .LASF147
     /tmp/ccRfQeYQ.s:3755   .debug_str:00000000000005e4 .LASF148
     /tmp/ccRfQeYQ.s:3673   .debug_str:0000000000000371 .LASF149
     /tmp/ccRfQeYQ.s:3605   .debug_str:0000000000000183 .LASF150
     /tmp/ccRfQeYQ.s:3709   .debug_str:0000000000000478 .LASF151
     /tmp/ccRfQeYQ.s:651    .text:0000000000000328 .LVL43
     /tmp/ccRfQeYQ.s:617    .text:00000000000002fc .LVL40
     /tmp/ccRfQeYQ.s:629    .text:0000000000000310 .LVL41
     /tmp/ccRfQeYQ.s:583    .text:00000000000002d0 .LVL37
     /tmp/ccRfQeYQ.s:595    .text:00000000000002e4 .LVL38
     /tmp/ccRfQeYQ.s:549    .text:00000000000002a4 .LVL34
     /tmp/ccRfQeYQ.s:561    .text:00000000000002b8 .LVL35
     /tmp/ccRfQeYQ.s:293    .text:0000000000000144 .LVL18
     /tmp/ccRfQeYQ.s:318    .text:000000000000017c .LVL21
     /tmp/ccRfQeYQ.s:131    .text:0000000000000074 .LVL7
     /tmp/ccRfQeYQ.s:139    .text:0000000000000084 .LVL8
     /tmp/ccRfQeYQ.s:508    .text:000000000000026c .LVL31
     /tmp/ccRfQeYQ.s:524    .text:000000000000028c .LVL32
     /tmp/ccRfQeYQ.s:41     .text:0000000000000000 .LVL1
     /tmp/ccRfQeYQ.s:69     .text:0000000000000030 .LVL3
     /tmp/ccRfQeYQ.s:405    .text:00000000000001e4 .LVL26
     /tmp/ccRfQeYQ.s:417    .text:00000000000001f8 .LVL27
     /tmp/ccRfQeYQ.s:369    .text:00000000000001b0 .LVL23
     /tmp/ccRfQeYQ.s:383    .text:00000000000001cc .LVL24
     /tmp/ccRfQeYQ.s:254    .text:0000000000000104 .LVL14
     /tmp/ccRfQeYQ.s:279    .text:000000000000013c .LVL17
GAS LISTING /tmp/ccRfQeYQ.s 			page 27


     /tmp/ccRfQeYQ.s:82     .text:0000000000000034 .LVL4
     /tmp/ccRfQeYQ.s:90     .text:0000000000000044 .LVL5
     /tmp/ccRfQeYQ.s:214    .text:00000000000000dc .LVL12
     /tmp/ccRfQeYQ.s:180    .text:00000000000000b4 .LVL10
     /tmp/ccRfQeYQ.s:736    .debug_info:0000000000000000 .Ldebug_info0
     /tmp/ccRfQeYQ.s:5      .text:0000000000000000 .Ltext0
     /tmp/ccRfQeYQ.s:729    .text:0000000000000378 .Letext0
     /tmp/ccRfQeYQ.s:240    .gcc_except_table:0000000000000000 .LLSDA11

UNDEFINED SYMBOLS
_ZN7_threaddlEPv
_ZN4_semdlEPv
_Z9mem_allocm
_Z8mem_freePv
__gxx_personality_v0
_Z13thread_createPP7_threadPFvPvES2_
_Z11thread_joinP7_thread
_Z15thread_dispatchv
_Z8sem_openPP4_semj
_Z8sem_waitP4_sem
_Z10sem_signalP4_sem
_Z11sem_trywaitP4_sem
_Z4putcc
_Z4getcv
