GAS LISTING /tmp/ccscjjZT.s 			page 1


   1              		.file	"timerHandler.c"
   2              		.option nopic
   3              		.option norelax
   4              		.text
   5              	.Ltext0:
   6              		.cfi_sections	.debug_frame
   7              		.align	2
   8              		.globl	timer_handler
  10              	timer_handler:
  11              	.LFB0:
  12              		.file 1 "src/timerHandler.c"
   1:src/timerHandler.c **** //
   2:src/timerHandler.c **** // Created by os on 1/25/24.
   3:src/timerHandler.c **** //
   4:src/timerHandler.c **** #include "../lib/hw.h"
   5:src/timerHandler.c **** #include "../lib/console.h"
   6:src/timerHandler.c **** void timer_handler(){
  13              		.loc 1 6 21
  14              		.cfi_startproc
  15 0000 130101FF 		addi	sp,sp,-16
  16              		.cfi_def_cfa_offset 16
  17 0004 23348100 		sd	s0,8(sp)
  18              		.cfi_offset 8, -8
  19 0008 13040101 		addi	s0,sp,16
  20              		.cfi_def_cfa 8, 0
   7:src/timerHandler.c ****    // __putc('T');
   8:src/timerHandler.c ****     uint64 sip;
  21              		.loc 1 8 5
   9:src/timerHandler.c ****     __asm__ volatile("csrr %0, sip": "=r"(sip));
  22              		.loc 1 9 5
  23              	#APP
  24              	# 9 "src/timerHandler.c" 1
  10              	    sip &= ~2;
  25              		csrr a5, sip
  26              	# 0 "" 2
  27              	.LVL0:
  28              		.loc 1 10 5
  29              		.loc 1 10 9 is_stmt 0
  30              	#NO_APP
  31 0010 93F7D7FF 		andi	a5,a5,-3
  32              	.LVL1:
  11:src/timerHandler.c ****     __asm__ volatile("csrw sip, %0"::"r"(sip));
  33              		.loc 1 11 5 is_stmt 1
  34              	#APP
  35              	# 11 "src/timerHandler.c" 1
  12              	    return;
  36              		csrw sip, a5
  37              	# 0 "" 2
  38              		.loc 1 12 5
  13:src/timerHandler.c **** }...
  39              		.loc 1 13 1 is_stmt 0
  40              	#NO_APP
  41 0018 03348100 		ld	s0,8(sp)
  42              		.cfi_restore 8
  43              		.cfi_def_cfa 2, 16
  44 001c 13010101 		addi	sp,sp,16
  45              		.cfi_def_cfa_offset 0
GAS LISTING /tmp/ccscjjZT.s 			page 2


  46 0020 67800000 		jr	ra
  47              		.cfi_endproc
  48              	.LFE0:
  50              	.Letext0:
  51              		.file 2 "src/../lib/hw.h"
GAS LISTING /tmp/ccscjjZT.s 			page 3

